
slave1.elf:     file format elf32-avr

Sections:
Idx Name          Size      VMA       LMA       File off  Algn
  0 .data         00000000  00800100  00800100  0000033a  2**0
                  CONTENTS, ALLOC, LOAD, DATA
  1 .text         000002c6  00000000  00000000  00000074  2**1
                  CONTENTS, ALLOC, LOAD, READONLY, CODE
  2 .bss          00000003  00800100  00800100  0000033a  2**0
                  ALLOC
  3 .comment      00000030  00000000  00000000  0000033a  2**0
                  CONTENTS, READONLY
  4 .note.gnu.avr.deviceinfo 00000040  00000000  00000000  0000036c  2**2
                  CONTENTS, READONLY
  5 .debug_aranges 000000d0  00000000  00000000  000003ac  2**0
                  CONTENTS, READONLY, DEBUGGING
  6 .debug_info   00000a75  00000000  00000000  0000047c  2**0
                  CONTENTS, READONLY, DEBUGGING
  7 .debug_abbrev 00000895  00000000  00000000  00000ef1  2**0
                  CONTENTS, READONLY, DEBUGGING
  8 .debug_line   00000727  00000000  00000000  00001786  2**0
                  CONTENTS, READONLY, DEBUGGING
  9 .debug_frame  0000018c  00000000  00000000  00001eb0  2**2
                  CONTENTS, READONLY, DEBUGGING
 10 .debug_str    000004a8  00000000  00000000  0000203c  2**0
                  CONTENTS, READONLY, DEBUGGING
 11 .debug_loc    000002b9  00000000  00000000  000024e4  2**0
                  CONTENTS, READONLY, DEBUGGING
 12 .debug_ranges 00000090  00000000  00000000  0000279d  2**0
                  CONTENTS, READONLY, DEBUGGING

Disassembly of section .text:

00000000 <__vectors>:
   0:	0c 94 34 00 	jmp	0x68	; 0x68 <__ctors_end>
   4:	0c 94 46 00 	jmp	0x8c	; 0x8c <__bad_interrupt>
   8:	0c 94 46 00 	jmp	0x8c	; 0x8c <__bad_interrupt>
   c:	0c 94 46 00 	jmp	0x8c	; 0x8c <__bad_interrupt>
  10:	0c 94 46 00 	jmp	0x8c	; 0x8c <__bad_interrupt>
  14:	0c 94 46 00 	jmp	0x8c	; 0x8c <__bad_interrupt>
  18:	0c 94 46 00 	jmp	0x8c	; 0x8c <__bad_interrupt>
  1c:	0c 94 46 00 	jmp	0x8c	; 0x8c <__bad_interrupt>
  20:	0c 94 46 00 	jmp	0x8c	; 0x8c <__bad_interrupt>
  24:	0c 94 46 00 	jmp	0x8c	; 0x8c <__bad_interrupt>
  28:	0c 94 46 00 	jmp	0x8c	; 0x8c <__bad_interrupt>
  2c:	0c 94 46 00 	jmp	0x8c	; 0x8c <__bad_interrupt>
  30:	0c 94 46 00 	jmp	0x8c	; 0x8c <__bad_interrupt>
  34:	0c 94 46 00 	jmp	0x8c	; 0x8c <__bad_interrupt>
  38:	0c 94 46 00 	jmp	0x8c	; 0x8c <__bad_interrupt>
  3c:	0c 94 46 00 	jmp	0x8c	; 0x8c <__bad_interrupt>
  40:	0c 94 46 00 	jmp	0x8c	; 0x8c <__bad_interrupt>
  44:	0c 94 46 00 	jmp	0x8c	; 0x8c <__bad_interrupt>
  48:	0c 94 46 00 	jmp	0x8c	; 0x8c <__bad_interrupt>
  4c:	0c 94 46 00 	jmp	0x8c	; 0x8c <__bad_interrupt>
  50:	0c 94 46 00 	jmp	0x8c	; 0x8c <__bad_interrupt>
  54:	0c 94 97 00 	jmp	0x12e	; 0x12e <__vector_21>
  58:	0c 94 46 00 	jmp	0x8c	; 0x8c <__bad_interrupt>
  5c:	0c 94 46 00 	jmp	0x8c	; 0x8c <__bad_interrupt>
  60:	0c 94 cb 00 	jmp	0x196	; 0x196 <__vector_24>
  64:	0c 94 46 00 	jmp	0x8c	; 0x8c <__bad_interrupt>

00000068 <__ctors_end>:
  68:	11 24       	eor	r1, r1
  6a:	1f be       	out	0x3f, r1	; 63
  6c:	cf ef       	ldi	r28, 0xFF	; 255
  6e:	d8 e0       	ldi	r29, 0x08	; 8
  70:	de bf       	out	0x3e, r29	; 62
  72:	cd bf       	out	0x3d, r28	; 61

00000074 <__do_clear_bss>:
  74:	21 e0       	ldi	r18, 0x01	; 1
  76:	a0 e0       	ldi	r26, 0x00	; 0
  78:	b1 e0       	ldi	r27, 0x01	; 1
  7a:	01 c0       	rjmp	.+2      	; 0x7e <.do_clear_bss_start>

0000007c <.do_clear_bss_loop>:
  7c:	1d 92       	st	X+, r1

0000007e <.do_clear_bss_start>:
  7e:	a3 30       	cpi	r26, 0x03	; 3
  80:	b2 07       	cpc	r27, r18
  82:	e1 f7       	brne	.-8      	; 0x7c <.do_clear_bss_loop>
  84:	0e 94 6b 00 	call	0xd6	; 0xd6 <main>
  88:	0c 94 61 01 	jmp	0x2c2	; 0x2c2 <_exit>

0000008c <__bad_interrupt>:
  8c:	0c 94 00 00 	jmp	0	; 0x0 <__vectors>

00000090 <init_ADC>:

//NON-Interrupt subroutines

void init_ADC(void)
{
	ADMUX = 0;																		// LIMPIAR REGISTRO
  90:	ec e7       	ldi	r30, 0x7C	; 124
  92:	f0 e0       	ldi	r31, 0x00	; 0
  94:	10 82       	st	Z, r1
	ADMUX |= (1 << REFS0);															// utilizar AVcc como referencia (5v)
  96:	80 81       	ld	r24, Z
  98:	80 64       	ori	r24, 0x40	; 64
  9a:	80 83       	st	Z, r24
	ADMUX |= (1 << ADLAR);															// justificado a la izquierda (y leo 8 bits mas significativos)
  9c:	80 81       	ld	r24, Z
  9e:	80 62       	ori	r24, 0x20	; 32
  a0:	80 83       	st	Z, r24
	ADMUX |= (1 << MUX0);															// utilizar PC1 para potenciometro
  a2:	80 81       	ld	r24, Z
  a4:	81 60       	ori	r24, 0x01	; 1
  a6:	80 83       	st	Z, r24
	
	ADCSRA = 0;																		// LIMPIAR REGISTRO
  a8:	ea e7       	ldi	r30, 0x7A	; 122
  aa:	f0 e0       	ldi	r31, 0x00	; 0
  ac:	10 82       	st	Z, r1
	ADCSRA |= (1 << ADEN);															// Activar ADC
  ae:	80 81       	ld	r24, Z
  b0:	80 68       	ori	r24, 0x80	; 128
  b2:	80 83       	st	Z, r24
	ADCSRA |= (1 << ADIE);															// Activar interrupcion del ADC
  b4:	80 81       	ld	r24, Z
  b6:	88 60       	ori	r24, 0x08	; 8
  b8:	80 83       	st	Z, r24
	ADCSRA |= (1 << ADPS2) | (1 << ADPS1) | (1 << ADPS0);							// prescaler 128
  ba:	80 81       	ld	r24, Z
  bc:	87 60       	ori	r24, 0x07	; 7
  be:	80 83       	st	Z, r24
  c0:	08 95       	ret

000000c2 <I2C_SLAVE_INIT>:
	return 1;
}
//Inicializar dispositivo slave
void I2C_SLAVE_INIT(uint8_t address)
{
	DDRC &= ~((1 << DDC4) | (1 << DDC5)); //Entradas de inicio
  c2:	97 b1       	in	r25, 0x07	; 7
  c4:	9f 7c       	andi	r25, 0xCF	; 207
  c6:	97 b9       	out	0x07, r25	; 7
	TWAR = address << 1; //Activar direccion
  c8:	88 0f       	add	r24, r24
  ca:	80 93 ba 00 	sts	0x00BA, r24	; 0x8000ba <__TEXT_REGION_LENGTH__+0x7f80ba>
	TWCR = (1 << TWEA) | (1 << TWEN) | (1 << TWIE);
  ce:	85 e4       	ldi	r24, 0x45	; 69
  d0:	80 93 bc 00 	sts	0x00BC, r24	; 0x8000bc <__TEXT_REGION_LENGTH__+0x7f80bc>
  d4:	08 95       	ret

000000d6 <main>:
//Main

int main(void)
{
	//CONFIGURAR sensor como entrada
	cli();
  d6:	f8 94       	cli
	DDRC &= ~(1 << DDC1);						// pot
  d8:	87 b1       	in	r24, 0x07	; 7
  da:	8d 7f       	andi	r24, 0xFD	; 253
  dc:	87 b9       	out	0x07, r24	; 7
	DDRB |= (1 << DDB5);						// toggle
  de:	84 b1       	in	r24, 0x04	; 4
  e0:	80 62       	ori	r24, 0x20	; 32
  e2:	84 b9       	out	0x04, r24	; 4
	DDRD |= (1 << DDD3);
  e4:	8a b1       	in	r24, 0x0a	; 10
  e6:	88 60       	ori	r24, 0x08	; 8
  e8:	8a b9       	out	0x0a, r24	; 10
	PORTD &= ~(1 << PORTD3);					//led para mostrar que se recibio un dato
  ea:	8b b1       	in	r24, 0x0b	; 11
  ec:	87 7f       	andi	r24, 0xF7	; 247
  ee:	8b b9       	out	0x0b, r24	; 11
	DDRC |= (1 << DDC3);
  f0:	87 b1       	in	r24, 0x07	; 7
  f2:	88 60       	ori	r24, 0x08	; 8
  f4:	87 b9       	out	0x07, r24	; 7
	PORTC &= ~(1 << PORTC3);					//debuggeo manual del case
  f6:	88 b1       	in	r24, 0x08	; 8
  f8:	87 7f       	andi	r24, 0xF7	; 247
  fa:	88 b9       	out	0x08, r24	; 8
	init_ADC();
  fc:	0e 94 48 00 	call	0x90	; 0x90 <init_ADC>
	init_PWM1(19999);
 100:	8f e1       	ldi	r24, 0x1F	; 31
 102:	9e e4       	ldi	r25, 0x4E	; 78
 104:	0e 94 23 01 	call	0x246	; 0x246 <init_PWM1>
	I2C_SLAVE_INIT(SlaveAdress);
 108:	80 e3       	ldi	r24, 0x30	; 48
 10a:	0e 94 61 00 	call	0xc2	; 0xc2 <I2C_SLAVE_INIT>
	sei();
 10e:	78 94       	sei
    while (1) 
    {
		if (buffer == 'C')
 110:	80 91 01 01 	lds	r24, 0x0101	; 0x800101 <buffer>
 114:	83 34       	cpi	r24, 0x43	; 67
 116:	29 f4       	brne	.+10     	; 0x122 <main+0x4c>
		{
			PORTD |= (1 << PORTD3);
 118:	8b b1       	in	r24, 0x0b	; 11
 11a:	88 60       	ori	r24, 0x08	; 8
 11c:	8b b9       	out	0x0b, r24	; 11
			buffer = 0;
 11e:	10 92 01 01 	sts	0x0101, r1	; 0x800101 <buffer>
		}
		//Secuencia ADC
		ADCSRA |= (1 << ADSC);
 122:	ea e7       	ldi	r30, 0x7A	; 122
 124:	f0 e0       	ldi	r31, 0x00	; 0
 126:	80 81       	ld	r24, Z
 128:	80 64       	ori	r24, 0x40	; 64
 12a:	80 83       	st	Z, r24
    }
 12c:	f1 cf       	rjmp	.-30     	; 0x110 <main+0x3a>

0000012e <__vector_21>:

//Interrupt routines


ISR(ADC_vect)
{
 12e:	1f 92       	push	r1
 130:	0f 92       	push	r0
 132:	0f b6       	in	r0, 0x3f	; 63
 134:	0f 92       	push	r0
 136:	11 24       	eor	r1, r1
 138:	2f 93       	push	r18
 13a:	5f 93       	push	r21
 13c:	6f 93       	push	r22
 13e:	7f 93       	push	r23
 140:	8f 93       	push	r24
 142:	9f 93       	push	r25
 144:	af 93       	push	r26
 146:	bf 93       	push	r27
 148:	ef 93       	push	r30
 14a:	ff 93       	push	r31
	adc_value =  ADCH;
 14c:	80 91 79 00 	lds	r24, 0x0079	; 0x800079 <__TEXT_REGION_LENGTH__+0x7f8079>
 150:	80 93 00 01 	sts	0x0100, r24	; 0x800100 <__DATA_REGION_ORIGIN__>
	porcentaje_humedad = 100 - ((adc_value * 100) / 255);
 154:	80 91 00 01 	lds	r24, 0x0100	; 0x800100 <__DATA_REGION_ORIGIN__>
 158:	24 e6       	ldi	r18, 0x64	; 100
 15a:	28 9f       	mul	r18, r24
 15c:	c0 01       	movw	r24, r0
 15e:	11 24       	eor	r1, r1
 160:	6f ef       	ldi	r22, 0xFF	; 255
 162:	70 e0       	ldi	r23, 0x00	; 0
 164:	0e 94 39 01 	call	0x272	; 0x272 <__divmodhi4>
 168:	26 1b       	sub	r18, r22
 16a:	20 93 02 01 	sts	0x0102, r18	; 0x800102 <porcentaje_humedad>
	ADCSRA |= (1 << ADIF);
 16e:	ea e7       	ldi	r30, 0x7A	; 122
 170:	f0 e0       	ldi	r31, 0x00	; 0
 172:	80 81       	ld	r24, Z
 174:	80 61       	ori	r24, 0x10	; 16
 176:	80 83       	st	Z, r24
}
 178:	ff 91       	pop	r31
 17a:	ef 91       	pop	r30
 17c:	bf 91       	pop	r27
 17e:	af 91       	pop	r26
 180:	9f 91       	pop	r25
 182:	8f 91       	pop	r24
 184:	7f 91       	pop	r23
 186:	6f 91       	pop	r22
 188:	5f 91       	pop	r21
 18a:	2f 91       	pop	r18
 18c:	0f 90       	pop	r0
 18e:	0f be       	out	0x3f, r0	; 63
 190:	0f 90       	pop	r0
 192:	1f 90       	pop	r1
 194:	18 95       	reti

00000196 <__vector_24>:

ISR(TWI_vect)
{
 196:	1f 92       	push	r1
 198:	0f 92       	push	r0
 19a:	0f b6       	in	r0, 0x3f	; 63
 19c:	0f 92       	push	r0
 19e:	11 24       	eor	r1, r1
 1a0:	8f 93       	push	r24
 1a2:	9f 93       	push	r25
 1a4:	ef 93       	push	r30
 1a6:	ff 93       	push	r31
	PORTB ^= (1 << PORTB5);
 1a8:	95 b1       	in	r25, 0x05	; 5
 1aa:	80 e2       	ldi	r24, 0x20	; 32
 1ac:	89 27       	eor	r24, r25
 1ae:	85 b9       	out	0x05, r24	; 5
	uint8_t state = (TWSR & 0xF8); //Extraer 5 bits del estado
 1b0:	80 91 b9 00 	lds	r24, 0x00B9	; 0x8000b9 <__TEXT_REGION_LENGTH__+0x7f80b9>
 1b4:	88 7f       	andi	r24, 0xF8	; 248
	switch (state)
 1b6:	80 3a       	cpi	r24, 0xA0	; 160
 1b8:	b1 f1       	breq	.+108    	; 0x226 <__vector_24+0x90>
 1ba:	58 f4       	brcc	.+22     	; 0x1d2 <__vector_24+0x3c>
 1bc:	80 37       	cpi	r24, 0x70	; 112
 1be:	a1 f0       	breq	.+40     	; 0x1e8 <__vector_24+0x52>
 1c0:	18 f4       	brcc	.+6      	; 0x1c8 <__vector_24+0x32>
 1c2:	80 36       	cpi	r24, 0x60	; 96
 1c4:	89 f0       	breq	.+34     	; 0x1e8 <__vector_24+0x52>
 1c6:	33 c0       	rjmp	.+102    	; 0x22e <__vector_24+0x98>
 1c8:	80 38       	cpi	r24, 0x80	; 128
 1ca:	a1 f0       	breq	.+40     	; 0x1f4 <__vector_24+0x5e>
 1cc:	80 39       	cpi	r24, 0x90	; 144
 1ce:	91 f0       	breq	.+36     	; 0x1f4 <__vector_24+0x5e>
 1d0:	2e c0       	rjmp	.+92     	; 0x22e <__vector_24+0x98>
 1d2:	88 3b       	cpi	r24, 0xB8	; 184
 1d4:	b9 f0       	breq	.+46     	; 0x204 <__vector_24+0x6e>
 1d6:	18 f4       	brcc	.+6      	; 0x1de <__vector_24+0x48>
 1d8:	88 3a       	cpi	r24, 0xA8	; 168
 1da:	a1 f0       	breq	.+40     	; 0x204 <__vector_24+0x6e>
 1dc:	28 c0       	rjmp	.+80     	; 0x22e <__vector_24+0x98>
 1de:	80 3c       	cpi	r24, 0xC0	; 192
 1e0:	e1 f0       	breq	.+56     	; 0x21a <__vector_24+0x84>
 1e2:	88 3c       	cpi	r24, 0xC8	; 200
 1e4:	d1 f0       	breq	.+52     	; 0x21a <__vector_24+0x84>
 1e6:	23 c0       	rjmp	.+70     	; 0x22e <__vector_24+0x98>
	{
		// --> Slave
		case 0x60:
		case 0x70:
			TWCR |= (1 << TWINT) | (1 << TWEN) | (1 << TWIE) | (1 << TWEA);
 1e8:	ec eb       	ldi	r30, 0xBC	; 188
 1ea:	f0 e0       	ldi	r31, 0x00	; 0
 1ec:	80 81       	ld	r24, Z
 1ee:	85 6c       	ori	r24, 0xC5	; 197
 1f0:	80 83       	st	Z, r24
			break;
 1f2:	20 c0       	rjmp	.+64     	; 0x234 <__vector_24+0x9e>
		case 0x80:
		case 0x90:
			buffer = TWDR;
 1f4:	80 91 bb 00 	lds	r24, 0x00BB	; 0x8000bb <__TEXT_REGION_LENGTH__+0x7f80bb>
 1f8:	80 93 01 01 	sts	0x0101, r24	; 0x800101 <buffer>
			TWCR = (1 << TWINT) | (1 << TWEN) | (1 << TWIE) | (1 << TWEA);
 1fc:	85 ec       	ldi	r24, 0xC5	; 197
 1fe:	80 93 bc 00 	sts	0x00BC, r24	; 0x8000bc <__TEXT_REGION_LENGTH__+0x7f80bc>
			break;
 202:	18 c0       	rjmp	.+48     	; 0x234 <__vector_24+0x9e>
		// Enviar datos desde slave
		case 0xA8: //SLA+R
		case 0xB8: //Dato enviado, ACK --> Slave
			PORTC |= (1 << PORTC3);
 204:	88 b1       	in	r24, 0x08	; 8
 206:	88 60       	ori	r24, 0x08	; 8
 208:	88 b9       	out	0x08, r24	; 8
			TWDR = porcentaje_humedad;														//Enviar valor del sensor
 20a:	80 91 02 01 	lds	r24, 0x0102	; 0x800102 <porcentaje_humedad>
 20e:	80 93 bb 00 	sts	0x00BB, r24	; 0x8000bb <__TEXT_REGION_LENGTH__+0x7f80bb>
			TWCR = (1 << TWINT) | (1 << TWEN) | (1 << TWIE) | (1 << TWEA);
 212:	85 ec       	ldi	r24, 0xC5	; 197
 214:	80 93 bc 00 	sts	0x00BC, r24	; 0x8000bc <__TEXT_REGION_LENGTH__+0x7f80bc>
			break;
 218:	0d c0       	rjmp	.+26     	; 0x234 <__vector_24+0x9e>
		case 0xC0: //Dato transmitido, ACK --> slave
		case 0xC8: //Ultimo dato transmitido
			TWCR = 0;
 21a:	ec eb       	ldi	r30, 0xBC	; 188
 21c:	f0 e0       	ldi	r31, 0x00	; 0
 21e:	10 82       	st	Z, r1
			TWCR =  (1 << TWEN) | (1 << TWIE) | (1 << TWEA);  //(1 << TWINT);
 220:	85 e4       	ldi	r24, 0x45	; 69
 222:	80 83       	st	Z, r24
			break;
 224:	07 c0       	rjmp	.+14     	; 0x234 <__vector_24+0x9e>
		case 0xA0: //STOP | R_START recibido
			TWCR = (1 << TWINT) | (1 << TWEN) | (1 << TWIE) | (1 << TWEA);
 226:	85 ec       	ldi	r24, 0xC5	; 197
 228:	80 93 bc 00 	sts	0x00BC, r24	; 0x8000bc <__TEXT_REGION_LENGTH__+0x7f80bc>
			break;
 22c:	03 c0       	rjmp	.+6      	; 0x234 <__vector_24+0x9e>
		//Errores
		default:
			TWCR = (1 << TWINT) | (1 << TWEN) | (1 << TWIE) | (1 << TWEA);
 22e:	85 ec       	ldi	r24, 0xC5	; 197
 230:	80 93 bc 00 	sts	0x00BC, r24	; 0x8000bc <__TEXT_REGION_LENGTH__+0x7f80bc>
			break;
	}
 234:	ff 91       	pop	r31
 236:	ef 91       	pop	r30
 238:	9f 91       	pop	r25
 23a:	8f 91       	pop	r24
 23c:	0f 90       	pop	r0
 23e:	0f be       	out	0x3f, r0	; 63
 240:	0f 90       	pop	r0
 242:	1f 90       	pop	r1
 244:	18 95       	reti

00000246 <init_PWM1>:
// Librerias
#include "pwm1.h"

// NON-Interrupt subroutines
// El PWM sirve para el servomotor, este genera una señal que hace que se mueva
void init_PWM1(uint16_t TOP){
 246:	9c 01       	movw	r18, r24
	DDRB |= (1 << PORTB1) | (1 << PORTB2);										// Salida para servo1 (PB1) Y servo 2 (PB2)
 248:	94 b1       	in	r25, 0x04	; 4
 24a:	96 60       	ori	r25, 0x06	; 6
 24c:	94 b9       	out	0x04, r25	; 4
	TCCR1A = 0;																	// LIMPIAR TCCRA
 24e:	e0 e8       	ldi	r30, 0x80	; 128
 250:	f0 e0       	ldi	r31, 0x00	; 0
 252:	10 82       	st	Z, r1
	TCCR1A = (1 << COM1A1) | (1 << COM1B1) | (1 << WGM11);						// Polaridad no invertido (OC1A para servo1 y OC1B para servo2) y fast pwm (parte baja)
 254:	82 ea       	ldi	r24, 0xA2	; 162
 256:	80 83       	st	Z, r24
	TCCR1B = 0;																	// LIMPIAR TCCRB
 258:	e1 e8       	ldi	r30, 0x81	; 129
 25a:	f0 e0       	ldi	r31, 0x00	; 0
 25c:	10 82       	st	Z, r1
	TCCR1B = (1 << WGM13) | (1 << WGM12);										// MODO FAST PWM (parte alta)
 25e:	88 e1       	ldi	r24, 0x18	; 24
 260:	80 83       	st	Z, r24
	TCCR1B |= (1 << CS11);														// PRESCALER PWM 8
 262:	90 81       	ld	r25, Z
 264:	92 60       	ori	r25, 0x02	; 2
 266:	90 83       	st	Z, r25
	//TCCR1B |= (1 << ICNC1);														// noise canceler
	ICR1 = TOP;																	// valor maximo para ICR1 "19999"
 268:	30 93 87 00 	sts	0x0087, r19	; 0x800087 <__TEXT_REGION_LENGTH__+0x7f8087>
 26c:	20 93 86 00 	sts	0x0086, r18	; 0x800086 <__TEXT_REGION_LENGTH__+0x7f8086>
 270:	08 95       	ret

00000272 <__divmodhi4>:
 272:	97 fb       	bst	r25, 7
 274:	07 2e       	mov	r0, r23
 276:	16 f4       	brtc	.+4      	; 0x27c <__divmodhi4+0xa>
 278:	00 94       	com	r0
 27a:	07 d0       	rcall	.+14     	; 0x28a <__divmodhi4_neg1>
 27c:	77 fd       	sbrc	r23, 7
 27e:	09 d0       	rcall	.+18     	; 0x292 <__divmodhi4_neg2>
 280:	0e 94 4d 01 	call	0x29a	; 0x29a <__udivmodhi4>
 284:	07 fc       	sbrc	r0, 7
 286:	05 d0       	rcall	.+10     	; 0x292 <__divmodhi4_neg2>
 288:	3e f4       	brtc	.+14     	; 0x298 <__divmodhi4_exit>

0000028a <__divmodhi4_neg1>:
 28a:	90 95       	com	r25
 28c:	81 95       	neg	r24
 28e:	9f 4f       	sbci	r25, 0xFF	; 255
 290:	08 95       	ret

00000292 <__divmodhi4_neg2>:
 292:	70 95       	com	r23
 294:	61 95       	neg	r22
 296:	7f 4f       	sbci	r23, 0xFF	; 255

00000298 <__divmodhi4_exit>:
 298:	08 95       	ret

0000029a <__udivmodhi4>:
 29a:	aa 1b       	sub	r26, r26
 29c:	bb 1b       	sub	r27, r27
 29e:	51 e1       	ldi	r21, 0x11	; 17
 2a0:	07 c0       	rjmp	.+14     	; 0x2b0 <__udivmodhi4_ep>

000002a2 <__udivmodhi4_loop>:
 2a2:	aa 1f       	adc	r26, r26
 2a4:	bb 1f       	adc	r27, r27
 2a6:	a6 17       	cp	r26, r22
 2a8:	b7 07       	cpc	r27, r23
 2aa:	10 f0       	brcs	.+4      	; 0x2b0 <__udivmodhi4_ep>
 2ac:	a6 1b       	sub	r26, r22
 2ae:	b7 0b       	sbc	r27, r23

000002b0 <__udivmodhi4_ep>:
 2b0:	88 1f       	adc	r24, r24
 2b2:	99 1f       	adc	r25, r25
 2b4:	5a 95       	dec	r21
 2b6:	a9 f7       	brne	.-22     	; 0x2a2 <__udivmodhi4_loop>
 2b8:	80 95       	com	r24
 2ba:	90 95       	com	r25
 2bc:	bc 01       	movw	r22, r24
 2be:	cd 01       	movw	r24, r26
 2c0:	08 95       	ret

000002c2 <_exit>:
 2c2:	f8 94       	cli

000002c4 <__stop_program>:
 2c4:	ff cf       	rjmp	.-2      	; 0x2c4 <__stop_program>
