
slave2.elf:     file format elf32-avr

Sections:
Idx Name          Size      VMA       LMA       File off  Algn
  0 .data         00000018  00800100  00000cba  00000d4e  2**0
                  CONTENTS, ALLOC, LOAD, DATA
  1 .text         00000cba  00000000  00000000  00000094  2**1
                  CONTENTS, ALLOC, LOAD, READONLY, CODE
  2 .bss          0000000f  00800118  00800118  00000d66  2**0
                  ALLOC
  3 .comment      00000030  00000000  00000000  00000d66  2**0
                  CONTENTS, READONLY
  4 .note.gnu.avr.deviceinfo 00000040  00000000  00000000  00000d98  2**2
                  CONTENTS, READONLY
  5 .debug_aranges 00000140  00000000  00000000  00000dd8  2**0
                  CONTENTS, READONLY, DEBUGGING
  6 .debug_info   00001222  00000000  00000000  00000f18  2**0
                  CONTENTS, READONLY, DEBUGGING
  7 .debug_abbrev 00000b74  00000000  00000000  0000213a  2**0
                  CONTENTS, READONLY, DEBUGGING
  8 .debug_line   00000c78  00000000  00000000  00002cae  2**0
                  CONTENTS, READONLY, DEBUGGING
  9 .debug_frame  000002f8  00000000  00000000  00003928  2**2
                  CONTENTS, READONLY, DEBUGGING
 10 .debug_str    00000636  00000000  00000000  00003c20  2**0
                  CONTENTS, READONLY, DEBUGGING
 11 .debug_loc    00000a87  00000000  00000000  00004256  2**0
                  CONTENTS, READONLY, DEBUGGING
 12 .debug_ranges 00000168  00000000  00000000  00004cdd  2**0
                  CONTENTS, READONLY, DEBUGGING

Disassembly of section .text:

00000000 <__vectors>:
   0:	0c 94 34 00 	jmp	0x68	; 0x68 <__ctors_end>
   4:	0c 94 51 00 	jmp	0xa2	; 0xa2 <__bad_interrupt>
   8:	0c 94 51 00 	jmp	0xa2	; 0xa2 <__bad_interrupt>
   c:	0c 94 51 00 	jmp	0xa2	; 0xa2 <__bad_interrupt>
  10:	0c 94 51 00 	jmp	0xa2	; 0xa2 <__bad_interrupt>
  14:	0c 94 51 00 	jmp	0xa2	; 0xa2 <__bad_interrupt>
  18:	0c 94 51 00 	jmp	0xa2	; 0xa2 <__bad_interrupt>
  1c:	0c 94 51 00 	jmp	0xa2	; 0xa2 <__bad_interrupt>
  20:	0c 94 51 00 	jmp	0xa2	; 0xa2 <__bad_interrupt>
  24:	0c 94 51 00 	jmp	0xa2	; 0xa2 <__bad_interrupt>
  28:	0c 94 51 00 	jmp	0xa2	; 0xa2 <__bad_interrupt>
  2c:	0c 94 51 00 	jmp	0xa2	; 0xa2 <__bad_interrupt>
  30:	0c 94 51 00 	jmp	0xa2	; 0xa2 <__bad_interrupt>
  34:	0c 94 5f 02 	jmp	0x4be	; 0x4be <__vector_13>
  38:	0c 94 51 00 	jmp	0xa2	; 0xa2 <__bad_interrupt>
  3c:	0c 94 51 00 	jmp	0xa2	; 0xa2 <__bad_interrupt>
  40:	0c 94 51 00 	jmp	0xa2	; 0xa2 <__bad_interrupt>
  44:	0c 94 51 00 	jmp	0xa2	; 0xa2 <__bad_interrupt>
  48:	0c 94 51 00 	jmp	0xa2	; 0xa2 <__bad_interrupt>
  4c:	0c 94 51 00 	jmp	0xa2	; 0xa2 <__bad_interrupt>
  50:	0c 94 51 00 	jmp	0xa2	; 0xa2 <__bad_interrupt>
  54:	0c 94 73 02 	jmp	0x4e6	; 0x4e6 <__vector_21>
  58:	0c 94 51 00 	jmp	0xa2	; 0xa2 <__bad_interrupt>
  5c:	0c 94 51 00 	jmp	0xa2	; 0xa2 <__bad_interrupt>
  60:	0c 94 8c 02 	jmp	0x518	; 0x518 <__vector_24>
  64:	0c 94 51 00 	jmp	0xa2	; 0xa2 <__bad_interrupt>

00000068 <__ctors_end>:
  68:	11 24       	eor	r1, r1
  6a:	1f be       	out	0x3f, r1	; 63
  6c:	cf ef       	ldi	r28, 0xFF	; 255
  6e:	d8 e0       	ldi	r29, 0x08	; 8
  70:	de bf       	out	0x3e, r29	; 62
  72:	cd bf       	out	0x3d, r28	; 61

00000074 <__do_copy_data>:
  74:	11 e0       	ldi	r17, 0x01	; 1
  76:	a0 e0       	ldi	r26, 0x00	; 0
  78:	b1 e0       	ldi	r27, 0x01	; 1
  7a:	ea eb       	ldi	r30, 0xBA	; 186
  7c:	fc e0       	ldi	r31, 0x0C	; 12
  7e:	02 c0       	rjmp	.+4      	; 0x84 <__do_copy_data+0x10>
  80:	05 90       	lpm	r0, Z+
  82:	0d 92       	st	X+, r0
  84:	a8 31       	cpi	r26, 0x18	; 24
  86:	b1 07       	cpc	r27, r17
  88:	d9 f7       	brne	.-10     	; 0x80 <__do_copy_data+0xc>

0000008a <__do_clear_bss>:
  8a:	21 e0       	ldi	r18, 0x01	; 1
  8c:	a8 e1       	ldi	r26, 0x18	; 24
  8e:	b1 e0       	ldi	r27, 0x01	; 1
  90:	01 c0       	rjmp	.+2      	; 0x94 <.do_clear_bss_start>

00000092 <.do_clear_bss_loop>:
  92:	1d 92       	st	X+, r1

00000094 <.do_clear_bss_start>:
  94:	a7 32       	cpi	r26, 0x27	; 39
  96:	b2 07       	cpc	r27, r18
  98:	e1 f7       	brne	.-8      	; 0x92 <.do_clear_bss_loop>
  9a:	0e 94 8b 01 	call	0x316	; 0x316 <main>
  9e:	0c 94 5b 06 	jmp	0xcb6	; 0xcb6 <_exit>

000000a2 <__bad_interrupt>:
  a2:	0c 94 00 00 	jmp	0	; 0x0 <__vectors>

000000a6 <init_ADC>:

//NON-Interrupt subroutines

void init_ADC(void)
{
	ADMUX = 0;																		// LIMPIAR REGISTRO
  a6:	ec e7       	ldi	r30, 0x7C	; 124
  a8:	f0 e0       	ldi	r31, 0x00	; 0
  aa:	10 82       	st	Z, r1
	ADMUX |= (1 << REFS0);															// utilizar AVcc como referencia (5v)
  ac:	80 81       	ld	r24, Z
  ae:	80 64       	ori	r24, 0x40	; 64
  b0:	80 83       	st	Z, r24
	ADMUX |= (1 << ADLAR);															// justificado a la izquierda (y leo 8 bits mas significativos)
  b2:	80 81       	ld	r24, Z
  b4:	80 62       	ori	r24, 0x20	; 32
  b6:	80 83       	st	Z, r24
	ADMUX |= (1 << MUX0);															// utilizar PC1 para potenciometro
  b8:	80 81       	ld	r24, Z
  ba:	81 60       	ori	r24, 0x01	; 1
  bc:	80 83       	st	Z, r24
	
	ADCSRA = 0;																		// LIMPIAR REGISTRO
  be:	ea e7       	ldi	r30, 0x7A	; 122
  c0:	f0 e0       	ldi	r31, 0x00	; 0
  c2:	10 82       	st	Z, r1
	ADCSRA |= (1 << ADEN);															// Activar ADC
  c4:	80 81       	ld	r24, Z
  c6:	80 68       	ori	r24, 0x80	; 128
  c8:	80 83       	st	Z, r24
	ADCSRA |= (1 << ADIE);															// Activar interrupcion del ADC
  ca:	80 81       	ld	r24, Z
  cc:	88 60       	ori	r24, 0x08	; 8
  ce:	80 83       	st	Z, r24
	ADCSRA |= (1 << ADPS2) | (1 << ADPS1) | (1 << ADPS0);							// prescaler 128
  d0:	80 81       	ld	r24, Z
  d2:	87 60       	ori	r24, 0x07	; 7
  d4:	80 83       	st	Z, r24
  d6:	08 95       	ret

000000d8 <init_HX711>:
	if (equivalencia == 0.0f)
	{
		equivalencia = 1.0f;
	}
	cal->scale = equivalencia;
}
  d8:	87 b1       	in	r24, 0x07	; 7
  da:	82 60       	ori	r24, 0x02	; 2
  dc:	87 b9       	out	0x07, r24	; 7
  de:	87 b1       	in	r24, 0x07	; 7
  e0:	8b 7f       	andi	r24, 0xFB	; 251
  e2:	87 b9       	out	0x07, r24	; 7
  e4:	88 b1       	in	r24, 0x08	; 8
  e6:	8d 7f       	andi	r24, 0xFD	; 253
  e8:	88 b9       	out	0x08, r24	; 8
  ea:	08 95       	ret

000000ec <sensor_listo>:
  ec:	86 b1       	in	r24, 0x06	; 6
  ee:	86 95       	lsr	r24
  f0:	86 95       	lsr	r24
  f2:	91 e0       	ldi	r25, 0x01	; 1
  f4:	89 27       	eor	r24, r25
  f6:	81 70       	andi	r24, 0x01	; 1
  f8:	08 95       	ret

000000fa <leer_24bits>:
  fa:	0e 94 76 00 	call	0xec	; 0xec <sensor_listo>
  fe:	88 23       	and	r24, r24
 100:	e1 f3       	breq	.-8      	; 0xfa <leer_24bits>
 102:	90 e0       	ldi	r25, 0x00	; 0
 104:	40 e0       	ldi	r20, 0x00	; 0
 106:	50 e0       	ldi	r21, 0x00	; 0
 108:	ba 01       	movw	r22, r20
 10a:	19 c0       	rjmp	.+50     	; 0x13e <leer_24bits+0x44>
 10c:	88 b1       	in	r24, 0x08	; 8
 10e:	82 60       	ori	r24, 0x02	; 2
 110:	88 b9       	out	0x08, r24	; 8
 112:	ef e8       	ldi	r30, 0x8F	; 143
 114:	f1 e0       	ldi	r31, 0x01	; 1
 116:	31 97       	sbiw	r30, 0x01	; 1
 118:	f1 f7       	brne	.-4      	; 0x116 <leer_24bits+0x1c>
 11a:	00 c0       	rjmp	.+0      	; 0x11c <leer_24bits+0x22>
 11c:	00 00       	nop
 11e:	44 0f       	add	r20, r20
 120:	55 1f       	adc	r21, r21
 122:	66 1f       	adc	r22, r22
 124:	77 1f       	adc	r23, r23
 126:	32 99       	sbic	0x06, 2	; 6
 128:	41 60       	ori	r20, 0x01	; 1
 12a:	88 b1       	in	r24, 0x08	; 8
 12c:	8d 7f       	andi	r24, 0xFD	; 253
 12e:	88 b9       	out	0x08, r24	; 8
 130:	ef e8       	ldi	r30, 0x8F	; 143
 132:	f1 e0       	ldi	r31, 0x01	; 1
 134:	31 97       	sbiw	r30, 0x01	; 1
 136:	f1 f7       	brne	.-4      	; 0x134 <leer_24bits+0x3a>
 138:	00 c0       	rjmp	.+0      	; 0x13a <leer_24bits+0x40>
 13a:	00 00       	nop
 13c:	9f 5f       	subi	r25, 0xFF	; 255
 13e:	98 31       	cpi	r25, 0x18	; 24
 140:	28 f3       	brcs	.-54     	; 0x10c <leer_24bits+0x12>
 142:	88 b1       	in	r24, 0x08	; 8
 144:	82 60       	ori	r24, 0x02	; 2
 146:	88 b9       	out	0x08, r24	; 8
 148:	f5 e0       	ldi	r31, 0x05	; 5
 14a:	fa 95       	dec	r31
 14c:	f1 f7       	brne	.-4      	; 0x14a <leer_24bits+0x50>
 14e:	00 00       	nop
 150:	88 b1       	in	r24, 0x08	; 8
 152:	8d 7f       	andi	r24, 0xFD	; 253
 154:	88 b9       	out	0x08, r24	; 8
 156:	85 e0       	ldi	r24, 0x05	; 5
 158:	8a 95       	dec	r24
 15a:	f1 f7       	brne	.-4      	; 0x158 <leer_24bits+0x5e>
 15c:	00 00       	nop
 15e:	67 fd       	sbrc	r22, 7
 160:	7f 6f       	ori	r23, 0xFF	; 255
 162:	cb 01       	movw	r24, r22
 164:	ba 01       	movw	r22, r20
 166:	08 95       	ret

00000168 <lectura_promedio>:
 168:	2f 92       	push	r2
 16a:	3f 92       	push	r3
 16c:	4f 92       	push	r4
 16e:	5f 92       	push	r5
 170:	6f 92       	push	r6
 172:	7f 92       	push	r7
 174:	8f 92       	push	r8
 176:	9f 92       	push	r9
 178:	af 92       	push	r10
 17a:	bf 92       	push	r11
 17c:	cf 92       	push	r12
 17e:	df 92       	push	r13
 180:	ef 92       	push	r14
 182:	ff 92       	push	r15
 184:	0f 93       	push	r16
 186:	1f 93       	push	r17
 188:	cf 93       	push	r28
 18a:	df 93       	push	r29
 18c:	28 2e       	mov	r2, r24
 18e:	81 11       	cpse	r24, r1
 190:	02 c0       	rjmp	.+4      	; 0x196 <lectura_promedio+0x2e>
 192:	22 24       	eor	r2, r2
 194:	23 94       	inc	r2
 196:	51 2c       	mov	r5, r1
 198:	61 2c       	mov	r6, r1
 19a:	71 2c       	mov	r7, r1
 19c:	81 2c       	mov	r8, r1
 19e:	91 2c       	mov	r9, r1
 1a0:	d0 e0       	ldi	r29, 0x00	; 0
 1a2:	c0 e0       	ldi	r28, 0x00	; 0
 1a4:	31 2c       	mov	r3, r1
 1a6:	41 2c       	mov	r4, r1
 1a8:	23 c0       	rjmp	.+70     	; 0x1f0 <lectura_promedio+0x88>
 1aa:	0e 94 7d 00 	call	0xfa	; 0xfa <leer_24bits>
 1ae:	6b 01       	movw	r12, r22
 1b0:	7c 01       	movw	r14, r24
 1b2:	ff 0c       	add	r15, r15
 1b4:	cc 08       	sbc	r12, r12
 1b6:	dc 2c       	mov	r13, r12
 1b8:	76 01       	movw	r14, r12
 1ba:	26 2f       	mov	r18, r22
 1bc:	37 2f       	mov	r19, r23
 1be:	48 2f       	mov	r20, r24
 1c0:	59 2f       	mov	r21, r25
 1c2:	6c 2d       	mov	r22, r12
 1c4:	7c 2d       	mov	r23, r12
 1c6:	8c 2d       	mov	r24, r12
 1c8:	9c 2d       	mov	r25, r12
 1ca:	a6 2c       	mov	r10, r6
 1cc:	b7 2c       	mov	r11, r7
 1ce:	c8 2c       	mov	r12, r8
 1d0:	d9 2c       	mov	r13, r9
 1d2:	ed 2e       	mov	r14, r29
 1d4:	fc 2e       	mov	r15, r28
 1d6:	03 2d       	mov	r16, r3
 1d8:	14 2d       	mov	r17, r4
 1da:	0e 94 52 06 	call	0xca4	; 0xca4 <__adddi3>
 1de:	62 2e       	mov	r6, r18
 1e0:	73 2e       	mov	r7, r19
 1e2:	84 2e       	mov	r8, r20
 1e4:	95 2e       	mov	r9, r21
 1e6:	d6 2f       	mov	r29, r22
 1e8:	c7 2f       	mov	r28, r23
 1ea:	38 2e       	mov	r3, r24
 1ec:	49 2e       	mov	r4, r25
 1ee:	53 94       	inc	r5
 1f0:	52 14       	cp	r5, r2
 1f2:	d8 f2       	brcs	.-74     	; 0x1aa <lectura_promedio+0x42>
 1f4:	a2 2c       	mov	r10, r2
 1f6:	b1 2c       	mov	r11, r1
 1f8:	c1 2c       	mov	r12, r1
 1fa:	d1 2c       	mov	r13, r1
 1fc:	e1 2c       	mov	r14, r1
 1fe:	f1 2c       	mov	r15, r1
 200:	00 e0       	ldi	r16, 0x00	; 0
 202:	10 e0       	ldi	r17, 0x00	; 0
 204:	26 2d       	mov	r18, r6
 206:	37 2d       	mov	r19, r7
 208:	48 2d       	mov	r20, r8
 20a:	59 2d       	mov	r21, r9
 20c:	6d 2f       	mov	r22, r29
 20e:	7c 2f       	mov	r23, r28
 210:	83 2d       	mov	r24, r3
 212:	94 2d       	mov	r25, r4
 214:	0e 94 7d 05 	call	0xafa	; 0xafa <__divdi3>
 218:	62 2f       	mov	r22, r18
 21a:	73 2f       	mov	r23, r19
 21c:	84 2f       	mov	r24, r20
 21e:	95 2f       	mov	r25, r21
 220:	df 91       	pop	r29
 222:	cf 91       	pop	r28
 224:	1f 91       	pop	r17
 226:	0f 91       	pop	r16
 228:	ff 90       	pop	r15
 22a:	ef 90       	pop	r14
 22c:	df 90       	pop	r13
 22e:	cf 90       	pop	r12
 230:	bf 90       	pop	r11
 232:	af 90       	pop	r10
 234:	9f 90       	pop	r9
 236:	8f 90       	pop	r8
 238:	7f 90       	pop	r7
 23a:	6f 90       	pop	r6
 23c:	5f 90       	pop	r5
 23e:	4f 90       	pop	r4
 240:	3f 90       	pop	r3
 242:	2f 90       	pop	r2
 244:	08 95       	ret

00000246 <tara_bascula>:
 246:	cf 93       	push	r28
 248:	df 93       	push	r29
 24a:	00 97       	sbiw	r24, 0x00	; 0
 24c:	c1 f0       	breq	.+48     	; 0x27e <tara_bascula+0x38>
 24e:	ec 01       	movw	r28, r24
 250:	48 83       	st	Y, r20
 252:	59 83       	std	Y+1, r21	; 0x01
 254:	6a 83       	std	Y+2, r22	; 0x02
 256:	7b 83       	std	Y+3, r23	; 0x03
 258:	6c 81       	ldd	r22, Y+4	; 0x04
 25a:	7d 81       	ldd	r23, Y+5	; 0x05
 25c:	8e 81       	ldd	r24, Y+6	; 0x06
 25e:	9f 81       	ldd	r25, Y+7	; 0x07
 260:	20 e0       	ldi	r18, 0x00	; 0
 262:	30 e0       	ldi	r19, 0x00	; 0
 264:	a9 01       	movw	r20, r18
 266:	0e 94 af 03 	call	0x75e	; 0x75e <__cmpsf2>
 26a:	81 11       	cpse	r24, r1
 26c:	08 c0       	rjmp	.+16     	; 0x27e <tara_bascula+0x38>
 26e:	80 e0       	ldi	r24, 0x00	; 0
 270:	90 e0       	ldi	r25, 0x00	; 0
 272:	a0 e8       	ldi	r26, 0x80	; 128
 274:	bf e3       	ldi	r27, 0x3F	; 63
 276:	8c 83       	std	Y+4, r24	; 0x04
 278:	9d 83       	std	Y+5, r25	; 0x05
 27a:	ae 83       	std	Y+6, r26	; 0x06
 27c:	bf 83       	std	Y+7, r27	; 0x07
 27e:	df 91       	pop	r29
 280:	cf 91       	pop	r28
 282:	08 95       	ret

00000284 <peso_real>:

float peso_real(const HX711 *cal, int32_t lectura){									//convierte lectura a unidades con decimales
 284:	cf 92       	push	r12
 286:	df 92       	push	r13
 288:	ef 92       	push	r14
 28a:	ff 92       	push	r15
 28c:	0f 93       	push	r16
 28e:	1f 93       	push	r17
	if (!cal)
 290:	00 97       	sbiw	r24, 0x00	; 0
 292:	c1 f0       	breq	.+48     	; 0x2c4 <peso_real+0x40>
 294:	fc 01       	movw	r30, r24
	{
		return 0.0f;
	}
	return (float)(lectura - cal ->offset)/(cal->scale);
 296:	80 81       	ld	r24, Z
 298:	91 81       	ldd	r25, Z+1	; 0x01
 29a:	a2 81       	ldd	r26, Z+2	; 0x02
 29c:	b3 81       	ldd	r27, Z+3	; 0x03
 29e:	8a 01       	movw	r16, r20
 2a0:	9b 01       	movw	r18, r22
 2a2:	08 1b       	sub	r16, r24
 2a4:	19 0b       	sbc	r17, r25
 2a6:	2a 0b       	sbc	r18, r26
 2a8:	3b 0b       	sbc	r19, r27
 2aa:	c9 01       	movw	r24, r18
 2ac:	b8 01       	movw	r22, r16
 2ae:	c4 80       	ldd	r12, Z+4	; 0x04
 2b0:	d5 80       	ldd	r13, Z+5	; 0x05
 2b2:	e6 80       	ldd	r14, Z+6	; 0x06
 2b4:	f7 80       	ldd	r15, Z+7	; 0x07
 2b6:	0e 94 5e 04 	call	0x8bc	; 0x8bc <__floatsisf>
 2ba:	a7 01       	movw	r20, r14
 2bc:	96 01       	movw	r18, r12
 2be:	0e 94 b4 03 	call	0x768	; 0x768 <__divsf3>
 2c2:	03 c0       	rjmp	.+6      	; 0x2ca <peso_real+0x46>
}

float peso_real(const HX711 *cal, int32_t lectura){									//convierte lectura a unidades con decimales
	if (!cal)
	{
		return 0.0f;
 2c4:	60 e0       	ldi	r22, 0x00	; 0
 2c6:	70 e0       	ldi	r23, 0x00	; 0
 2c8:	cb 01       	movw	r24, r22
	}
	return (float)(lectura - cal ->offset)/(cal->scale);
 2ca:	1f 91       	pop	r17
 2cc:	0f 91       	pop	r16
 2ce:	ff 90       	pop	r15
 2d0:	ef 90       	pop	r14
 2d2:	df 90       	pop	r13
 2d4:	cf 90       	pop	r12
 2d6:	08 95       	ret

000002d8 <I2C_SLAVE_INIT>:
	return 1;
}
//Inicializar dispositivo slave
void I2C_SLAVE_INIT(uint8_t address)
{
	DDRC &= ~((1 << DDC4) | (1 << DDC5)); //Entradas de inicio
 2d8:	97 b1       	in	r25, 0x07	; 7
 2da:	9f 7c       	andi	r25, 0xCF	; 207
 2dc:	97 b9       	out	0x07, r25	; 7
	TWAR = address << 1; //Activar direccion
 2de:	88 0f       	add	r24, r24
 2e0:	80 93 ba 00 	sts	0x00BA, r24	; 0x8000ba <__TEXT_REGION_LENGTH__+0x7f80ba>
	TWCR = (1 << TWEA) | (1 << TWEN) | (1 << TWIE);
 2e4:	85 e4       	ldi	r24, 0x45	; 69
 2e6:	80 93 bc 00 	sts	0x00BC, r24	; 0x8000bc <__TEXT_REGION_LENGTH__+0x7f80bc>
 2ea:	08 95       	ret

000002ec <init_stepper>:
}

//NON-Interrupt subroutines
void init_stepper(void)
{
	DDRD |= (1 << DDD2) | (1 << DDD3) | (1 << DDD4) | (1 << DDD5);
 2ec:	8a b1       	in	r24, 0x0a	; 10
 2ee:	8c 63       	ori	r24, 0x3C	; 60
 2f0:	8a b9       	out	0x0a, r24	; 10
	PORTD &= ~((1 << PORTD2) | (1 << PORTD3) | (1 << PORTD4) | (1 << PORTD5));
 2f2:	8b b1       	in	r24, 0x0b	; 11
 2f4:	83 7c       	andi	r24, 0xC3	; 195
 2f6:	8b b9       	out	0x0b, r24	; 11
 2f8:	08 95       	ret

000002fa <init_timer1>:
}

void init_timer1(void)
{
	TCCR1A = 0x00;
 2fa:	10 92 80 00 	sts	0x0080, r1	; 0x800080 <__TEXT_REGION_LENGTH__+0x7f8080>
	//PRESCALER 64
	TCNT1 = 65286;
 2fe:	86 e0       	ldi	r24, 0x06	; 6
 300:	9f ef       	ldi	r25, 0xFF	; 255
 302:	90 93 85 00 	sts	0x0085, r25	; 0x800085 <__TEXT_REGION_LENGTH__+0x7f8085>
 306:	80 93 84 00 	sts	0x0084, r24	; 0x800084 <__TEXT_REGION_LENGTH__+0x7f8084>
	TIMSK1 |= (1 << TOIE1);
 30a:	ef e6       	ldi	r30, 0x6F	; 111
 30c:	f0 e0       	ldi	r31, 0x00	; 0
 30e:	80 81       	ld	r24, Z
 310:	81 60       	ori	r24, 0x01	; 1
 312:	80 83       	st	Z, r24
 314:	08 95       	ret

00000316 <main>:

//Main

int main(void)
{
	cli();
 316:	f8 94       	cli
	DDRC |=(1 << DDC3);
 318:	87 b1       	in	r24, 0x07	; 7
 31a:	88 60       	ori	r24, 0x08	; 8
 31c:	87 b9       	out	0x07, r24	; 7
	DDRC &= ~(1 << DDC1);								//pot
 31e:	87 b1       	in	r24, 0x07	; 7
 320:	8d 7f       	andi	r24, 0xFD	; 253
 322:	87 b9       	out	0x07, r24	; 7
	DDRB |= (1 << DDB5);
 324:	84 b1       	in	r24, 0x04	; 4
 326:	80 62       	ori	r24, 0x20	; 32
 328:	84 b9       	out	0x04, r24	; 4
	PORTC &= ~(1 << PORTC3);								//LED toggle
 32a:	88 b1       	in	r24, 0x08	; 8
 32c:	87 7f       	andi	r24, 0xF7	; 247
 32e:	88 b9       	out	0x08, r24	; 8
	init_HX711();
 330:	0e 94 6c 00 	call	0xd8	; 0xd8 <init_HX711>
	init_ADC();
 334:	0e 94 53 00 	call	0xa6	; 0xa6 <init_ADC>
	init_PWM1(19999);
 338:	8f e1       	ldi	r24, 0x1F	; 31
 33a:	9e e4       	ldi	r25, 0x4E	; 78
 33c:	0e 94 14 03 	call	0x628	; 0x628 <init_PWM1>
	I2C_SLAVE_INIT(SlaveAdress);
 340:	80 e5       	ldi	r24, 0x50	; 80
 342:	0e 94 6c 01 	call	0x2d8	; 0x2d8 <I2C_SLAVE_INIT>
	init_stepper();
 346:	0e 94 76 01 	call	0x2ec	; 0x2ec <init_stepper>
	init_timer1();
 34a:	0e 94 7d 01 	call	0x2fa	; 0x2fa <init_timer1>
	sei(); 
 34e:	78 94       	sei
	int32_t boton_tare = lectura_promedio(10);
 350:	8a e0       	ldi	r24, 0x0A	; 10
 352:	0e 94 b4 00 	call	0x168	; 0x168 <lectura_promedio>
 356:	ab 01       	movw	r20, r22
 358:	bc 01       	movw	r22, r24
	tara_bascula(&calibracion, boton_tare);
 35a:	80 e0       	ldi	r24, 0x00	; 0
 35c:	91 e0       	ldi	r25, 0x01	; 1
 35e:	0e 94 23 01 	call	0x246	; 0x246 <tara_bascula>
    while (1) 
    {		
		if (buffer == 'T')
 362:	80 91 23 01 	lds	r24, 0x0123	; 0x800123 <buffer>
 366:	84 35       	cpi	r24, 0x54	; 84
 368:	01 f5       	brne	.+64     	; 0x3aa <main+0x94>
		{
			PORTC |= (1 << PORTC3);
 36a:	88 b1       	in	r24, 0x08	; 8
 36c:	88 60       	ori	r24, 0x08	; 8
 36e:	88 b9       	out	0x08, r24	; 8
			buffer = 0;
 370:	10 92 23 01 	sts	0x0123, r1	; 0x800123 <buffer>
			if (gram >= 150)
 374:	80 91 1e 01 	lds	r24, 0x011E	; 0x80011e <gram>
 378:	90 91 1f 01 	lds	r25, 0x011F	; 0x80011f <gram+0x1>
 37c:	a0 91 20 01 	lds	r26, 0x0120	; 0x800120 <gram+0x2>
 380:	b0 91 21 01 	lds	r27, 0x0121	; 0x800121 <gram+0x3>
 384:	86 39       	cpi	r24, 0x96	; 150
 386:	91 05       	cpc	r25, r1
 388:	a1 05       	cpc	r26, r1
 38a:	b1 05       	cpc	r27, r1
 38c:	2c f0       	brlt	.+10     	; 0x398 <main+0x82>
			{
				pulso_PWM1(140);
 38e:	8c e8       	ldi	r24, 0x8C	; 140
 390:	90 e0       	ldi	r25, 0x00	; 0
 392:	0e 94 2a 03 	call	0x654	; 0x654 <pulso_PWM1>
 396:	09 c0       	rjmp	.+18     	; 0x3aa <main+0x94>
			}
			else if (gram <= 300)
 398:	8d 32       	cpi	r24, 0x2D	; 45
 39a:	91 40       	sbci	r25, 0x01	; 1
 39c:	a1 05       	cpc	r26, r1
 39e:	b1 05       	cpc	r27, r1
 3a0:	24 f4       	brge	.+8      	; 0x3aa <main+0x94>
			{
				pulso_PWM1(0);
 3a2:	80 e0       	ldi	r24, 0x00	; 0
 3a4:	90 e0       	ldi	r25, 0x00	; 0
 3a6:	0e 94 2a 03 	call	0x654	; 0x654 <pulso_PWM1>
			}
		}
		
		//------------------TEMPERATURA-----------------------//
		last_state = state;
 3aa:	90 91 1a 01 	lds	r25, 0x011A	; 0x80011a <state>
 3ae:	90 93 1b 01 	sts	0x011B, r25	; 0x80011b <last_state>
		if (temperatura>=TEMP_HIGH)
 3b2:	80 91 26 01 	lds	r24, 0x0126	; 0x800126 <temperatura>
 3b6:	89 31       	cpi	r24, 0x19	; 25
 3b8:	20 f0       	brcs	.+8      	; 0x3c2 <main+0xac>
		{
			state = 1;
 3ba:	81 e0       	ldi	r24, 0x01	; 1
 3bc:	80 93 1a 01 	sts	0x011A, r24	; 0x80011a <state>
 3c0:	08 c0       	rjmp	.+16     	; 0x3d2 <main+0xbc>
		}
		else if (temperatura<=TEMP_LOW)
 3c2:	86 31       	cpi	r24, 0x16	; 22
 3c4:	20 f4       	brcc	.+8      	; 0x3ce <main+0xb8>
		{
			state = 2;
 3c6:	82 e0       	ldi	r24, 0x02	; 2
 3c8:	80 93 1a 01 	sts	0x011A, r24	; 0x80011a <state>
 3cc:	02 c0       	rjmp	.+4      	; 0x3d2 <main+0xbc>
		}
		else
		{
			state = 0;
 3ce:	10 92 1a 01 	sts	0x011A, r1	; 0x80011a <state>
		}
		if (state == 1)			//cerrar techo
 3d2:	80 91 1a 01 	lds	r24, 0x011A	; 0x80011a <state>
 3d6:	81 30       	cpi	r24, 0x01	; 1
 3d8:	f9 f4       	brne	.+62     	; 0x418 <__EEPROM_REGION_LENGTH__+0x18>
		{
			if (!(last_state == state))
 3da:	98 13       	cpse	r25, r24
 3dc:	16 c0       	rjmp	.+44     	; 0x40a <__EEPROM_REGION_LENGTH__+0xa>
 3de:	18 c0       	rjmp	.+48     	; 0x410 <__EEPROM_REGION_LENGTH__+0x10>
			{
				for (uint8_t j = 0; j <= 8; j++)
				{
					for (uint8_t i = 0; i < 8;i++)
					{
						PORTD |= secuencia[i];
 3e0:	2b b1       	in	r18, 0x0b	; 11
 3e2:	e8 2f       	mov	r30, r24
 3e4:	f0 e0       	ldi	r31, 0x00	; 0
 3e6:	e0 5f       	subi	r30, 0xF0	; 240
 3e8:	fe 4f       	sbci	r31, 0xFE	; 254
 3ea:	90 81       	ld	r25, Z
 3ec:	92 2b       	or	r25, r18
 3ee:	9b b9       	out	0x0b, r25	; 11
	#else
		//round up by default
		__ticks_dc = (uint32_t)(ceil(fabs(__tmp)));
	#endif

	__builtin_avr_delay_cycles(__ticks_dc);
 3f0:	ef ec       	ldi	r30, 0xCF	; 207
 3f2:	f7 e0       	ldi	r31, 0x07	; 7
 3f4:	31 97       	sbiw	r30, 0x01	; 1
 3f6:	f1 f7       	brne	.-4      	; 0x3f4 <main+0xde>
 3f8:	00 c0       	rjmp	.+0      	; 0x3fa <main+0xe4>
 3fa:	00 00       	nop
		{
			if (!(last_state == state))
			{
				for (uint8_t j = 0; j <= 8; j++)
				{
					for (uint8_t i = 0; i < 8;i++)
 3fc:	8f 5f       	subi	r24, 0xFF	; 255
 3fe:	01 c0       	rjmp	.+2      	; 0x402 <__EEPROM_REGION_LENGTH__+0x2>
 400:	80 e0       	ldi	r24, 0x00	; 0
 402:	88 30       	cpi	r24, 0x08	; 8
 404:	68 f3       	brcs	.-38     	; 0x3e0 <main+0xca>
		}
		if (state == 1)			//cerrar techo
		{
			if (!(last_state == state))
			{
				for (uint8_t j = 0; j <= 8; j++)
 406:	3f 5f       	subi	r19, 0xFF	; 255
 408:	01 c0       	rjmp	.+2      	; 0x40c <__EEPROM_REGION_LENGTH__+0xc>
 40a:	30 e0       	ldi	r19, 0x00	; 0
 40c:	39 30       	cpi	r19, 0x09	; 9
 40e:	c0 f3       	brcs	.-16     	; 0x400 <__EEPROM_REGION_LENGTH__>
						PORTD |= secuencia[i];
						_delay_us(500);
					}
				}
			}
				PORTD &= ~((1 << PORTD2) | (1 << PORTD3) | (1 << PORTD4) | (1 << PORTD5));
 410:	8b b1       	in	r24, 0x0b	; 11
 412:	83 7c       	andi	r24, 0xC3	; 195
 414:	8b b9       	out	0x0b, r24	; 11
 416:	24 c0       	rjmp	.+72     	; 0x460 <__EEPROM_REGION_LENGTH__+0x60>
			}
		else if (state == 2)
 418:	82 30       	cpi	r24, 0x02	; 2
 41a:	f9 f4       	brne	.+62     	; 0x45a <__EEPROM_REGION_LENGTH__+0x5a>
		{
			if (!(last_state == state))
 41c:	98 13       	cpse	r25, r24
 41e:	16 c0       	rjmp	.+44     	; 0x44c <__EEPROM_REGION_LENGTH__+0x4c>
 420:	1f c0       	rjmp	.+62     	; 0x460 <__EEPROM_REGION_LENGTH__+0x60>
			{
				for (uint8_t j = 0; j <= 8; j++)
				{
					for (uint8_t i = 0; i < 8;i++)
					{
						PORTD |= r_secuencia[i];
 422:	2b b1       	in	r18, 0x0b	; 11
 424:	e8 2f       	mov	r30, r24
 426:	f0 e0       	ldi	r31, 0x00	; 0
 428:	e8 5f       	subi	r30, 0xF8	; 248
 42a:	fe 4f       	sbci	r31, 0xFE	; 254
 42c:	90 81       	ld	r25, Z
 42e:	92 2b       	or	r25, r18
 430:	9b b9       	out	0x0b, r25	; 11
 432:	ef ec       	ldi	r30, 0xCF	; 207
 434:	f7 e0       	ldi	r31, 0x07	; 7
 436:	31 97       	sbiw	r30, 0x01	; 1
 438:	f1 f7       	brne	.-4      	; 0x436 <__EEPROM_REGION_LENGTH__+0x36>
 43a:	00 c0       	rjmp	.+0      	; 0x43c <__EEPROM_REGION_LENGTH__+0x3c>
 43c:	00 00       	nop
		{
			if (!(last_state == state))
			{
				for (uint8_t j = 0; j <= 8; j++)
				{
					for (uint8_t i = 0; i < 8;i++)
 43e:	8f 5f       	subi	r24, 0xFF	; 255
 440:	01 c0       	rjmp	.+2      	; 0x444 <__EEPROM_REGION_LENGTH__+0x44>
 442:	80 e0       	ldi	r24, 0x00	; 0
 444:	88 30       	cpi	r24, 0x08	; 8
 446:	68 f3       	brcs	.-38     	; 0x422 <__EEPROM_REGION_LENGTH__+0x22>
			}
		else if (state == 2)
		{
			if (!(last_state == state))
			{
				for (uint8_t j = 0; j <= 8; j++)
 448:	3f 5f       	subi	r19, 0xFF	; 255
 44a:	01 c0       	rjmp	.+2      	; 0x44e <__EEPROM_REGION_LENGTH__+0x4e>
 44c:	30 e0       	ldi	r19, 0x00	; 0
 44e:	39 30       	cpi	r19, 0x09	; 9
 450:	c0 f3       	brcs	.-16     	; 0x442 <__EEPROM_REGION_LENGTH__+0x42>
					{
						PORTD |= r_secuencia[i];
						_delay_us(500);
					}
				}
				PORTD &= ~((1 << PORTD2) | (1 << PORTD3) | (1 << PORTD4) | (1 << PORTD5));
 452:	8b b1       	in	r24, 0x0b	; 11
 454:	83 7c       	andi	r24, 0xC3	; 195
 456:	8b b9       	out	0x0b, r24	; 11
 458:	03 c0       	rjmp	.+6      	; 0x460 <__EEPROM_REGION_LENGTH__+0x60>
			}
		}
		else
		{
			PORTD &= ~((1 << PORTD2) | (1 << PORTD3) | (1 << PORTD4) | (1 << PORTD5));
 45a:	8b b1       	in	r24, 0x0b	; 11
 45c:	83 7c       	andi	r24, 0xC3	; 195
 45e:	8b b9       	out	0x0b, r24	; 11
		}
		//-----------------PESO----------------------------------------------//
		
		int32_t entero = lectura_promedio(8);
 460:	88 e0       	ldi	r24, 0x08	; 8
 462:	0e 94 b4 00 	call	0x168	; 0x168 <lectura_promedio>
 466:	c6 2f       	mov	r28, r22
 468:	d7 2f       	mov	r29, r23
 46a:	18 2f       	mov	r17, r24
		float peso = peso_real(&calibracion, entero);
 46c:	46 2f       	mov	r20, r22
 46e:	57 2f       	mov	r21, r23
 470:	68 2f       	mov	r22, r24
 472:	79 2f       	mov	r23, r25
 474:	80 e0       	ldi	r24, 0x00	; 0
 476:	91 e0       	ldi	r25, 0x01	; 1
 478:	0e 94 42 01 	call	0x284	; 0x284 <peso_real>
 47c:	6b 01       	movw	r12, r22
 47e:	7c 01       	movw	r14, r24
		
		if (peso < 0)
 480:	20 e0       	ldi	r18, 0x00	; 0
 482:	30 e0       	ldi	r19, 0x00	; 0
 484:	a9 01       	movw	r20, r18
 486:	0e 94 af 03 	call	0x75e	; 0x75e <__cmpsf2>
 48a:	88 23       	and	r24, r24
 48c:	1c f4       	brge	.+6      	; 0x494 <__EEPROM_REGION_LENGTH__+0x94>
		{
			peso = 0;
 48e:	c1 2c       	mov	r12, r1
 490:	d1 2c       	mov	r13, r1
 492:	76 01       	movw	r14, r12
		}
		gram = (int32_t) peso;
 494:	c7 01       	movw	r24, r14
 496:	b6 01       	movw	r22, r12
 498:	0e 94 26 04 	call	0x84c	; 0x84c <__fixsfsi>
 49c:	60 93 1e 01 	sts	0x011E, r22	; 0x80011e <gram>
 4a0:	70 93 1f 01 	sts	0x011F, r23	; 0x80011f <gram+0x1>
 4a4:	80 93 20 01 	sts	0x0120, r24	; 0x800120 <gram+0x2>
 4a8:	90 93 21 01 	sts	0x0121, r25	; 0x800121 <gram+0x3>
		cli();
 4ac:	f8 94       	cli
		byte_h = (entero >> 16) & 0xFF;
 4ae:	10 93 24 01 	sts	0x0124, r17	; 0x800124 <byte_h>
		byte_m = (entero >> 8) & 0xFF;
 4b2:	d0 93 25 01 	sts	0x0125, r29	; 0x800125 <byte_m>
		byte_l = entero & 0xFF;
 4b6:	c0 93 19 01 	sts	0x0119, r28	; 0x800119 <byte_l>
		sei();
 4ba:	78 94       	sei
		
    }
 4bc:	52 cf       	rjmp	.-348    	; 0x362 <main+0x4c>

000004be <__vector_13>:
}

//Interrupt routines

ISR(TIMER1_OVF_vect)
{
 4be:	1f 92       	push	r1
 4c0:	0f 92       	push	r0
 4c2:	0f b6       	in	r0, 0x3f	; 63
 4c4:	0f 92       	push	r0
 4c6:	11 24       	eor	r1, r1
 4c8:	8f 93       	push	r24
 4ca:	9f 93       	push	r25
	TCNT1 = 65286;
 4cc:	86 e0       	ldi	r24, 0x06	; 6
 4ce:	9f ef       	ldi	r25, 0xFF	; 255
 4d0:	90 93 85 00 	sts	0x0085, r25	; 0x800085 <__TEXT_REGION_LENGTH__+0x7f8085>
 4d4:	80 93 84 00 	sts	0x0084, r24	; 0x800084 <__TEXT_REGION_LENGTH__+0x7f8084>
}
 4d8:	9f 91       	pop	r25
 4da:	8f 91       	pop	r24
 4dc:	0f 90       	pop	r0
 4de:	0f be       	out	0x3f, r0	; 63
 4e0:	0f 90       	pop	r0
 4e2:	1f 90       	pop	r1
 4e4:	18 95       	reti

000004e6 <__vector_21>:

ISR(ADC_vect)
{
 4e6:	1f 92       	push	r1
 4e8:	0f 92       	push	r0
 4ea:	0f b6       	in	r0, 0x3f	; 63
 4ec:	0f 92       	push	r0
 4ee:	11 24       	eor	r1, r1
 4f0:	8f 93       	push	r24
 4f2:	ef 93       	push	r30
 4f4:	ff 93       	push	r31
	adc_value =  ADCH;
 4f6:	80 91 79 00 	lds	r24, 0x0079	; 0x800079 <__TEXT_REGION_LENGTH__+0x7f8079>
 4fa:	80 93 22 01 	sts	0x0122, r24	; 0x800122 <adc_value>
	ADCSRA |= (1 << ADIF);
 4fe:	ea e7       	ldi	r30, 0x7A	; 122
 500:	f0 e0       	ldi	r31, 0x00	; 0
 502:	80 81       	ld	r24, Z
 504:	80 61       	ori	r24, 0x10	; 16
 506:	80 83       	st	Z, r24
}
 508:	ff 91       	pop	r31
 50a:	ef 91       	pop	r30
 50c:	8f 91       	pop	r24
 50e:	0f 90       	pop	r0
 510:	0f be       	out	0x3f, r0	; 63
 512:	0f 90       	pop	r0
 514:	1f 90       	pop	r1
 516:	18 95       	reti

00000518 <__vector_24>:

ISR(TWI_vect)
{
 518:	1f 92       	push	r1
 51a:	0f 92       	push	r0
 51c:	0f b6       	in	r0, 0x3f	; 63
 51e:	0f 92       	push	r0
 520:	11 24       	eor	r1, r1
 522:	8f 93       	push	r24
 524:	9f 93       	push	r25
 526:	ef 93       	push	r30
 528:	ff 93       	push	r31
	PORTB ^= (1 << PORTB5);
 52a:	95 b1       	in	r25, 0x05	; 5
 52c:	80 e2       	ldi	r24, 0x20	; 32
 52e:	89 27       	eor	r24, r25
 530:	85 b9       	out	0x05, r24	; 5
	uint8_t state = TWSR & 0xF8;						//Extraer 5 bits del estado
 532:	80 91 b9 00 	lds	r24, 0x00B9	; 0x8000b9 <__TEXT_REGION_LENGTH__+0x7f80b9>
 536:	88 7f       	andi	r24, 0xF8	; 248
	switch (state)
 538:	80 3a       	cpi	r24, 0xA0	; 160
 53a:	09 f4       	brne	.+2      	; 0x53e <__vector_24+0x26>
 53c:	65 c0       	rjmp	.+202    	; 0x608 <__vector_24+0xf0>
 53e:	58 f4       	brcc	.+22     	; 0x556 <__vector_24+0x3e>
 540:	80 37       	cpi	r24, 0x70	; 112
 542:	b1 f0       	breq	.+44     	; 0x570 <__vector_24+0x58>
 544:	18 f4       	brcc	.+6      	; 0x54c <__vector_24+0x34>
 546:	80 36       	cpi	r24, 0x60	; 96
 548:	99 f0       	breq	.+38     	; 0x570 <__vector_24+0x58>
 54a:	62 c0       	rjmp	.+196    	; 0x610 <__vector_24+0xf8>
 54c:	80 38       	cpi	r24, 0x80	; 128
 54e:	b1 f0       	breq	.+44     	; 0x57c <__vector_24+0x64>
 550:	80 39       	cpi	r24, 0x90	; 144
 552:	a1 f0       	breq	.+40     	; 0x57c <__vector_24+0x64>
 554:	5d c0       	rjmp	.+186    	; 0x610 <__vector_24+0xf8>
 556:	88 3b       	cpi	r24, 0xB8	; 184
 558:	69 f1       	breq	.+90     	; 0x5b4 <__vector_24+0x9c>
 55a:	18 f4       	brcc	.+6      	; 0x562 <__vector_24+0x4a>
 55c:	88 3a       	cpi	r24, 0xA8	; 168
 55e:	51 f1       	breq	.+84     	; 0x5b4 <__vector_24+0x9c>
 560:	57 c0       	rjmp	.+174    	; 0x610 <__vector_24+0xf8>
 562:	80 3c       	cpi	r24, 0xC0	; 192
 564:	09 f4       	brne	.+2      	; 0x568 <__vector_24+0x50>
 566:	4a c0       	rjmp	.+148    	; 0x5fc <__vector_24+0xe4>
 568:	88 3c       	cpi	r24, 0xC8	; 200
 56a:	09 f4       	brne	.+2      	; 0x56e <__vector_24+0x56>
 56c:	47 c0       	rjmp	.+142    	; 0x5fc <__vector_24+0xe4>
 56e:	50 c0       	rjmp	.+160    	; 0x610 <__vector_24+0xf8>
	{
		// ---> Slave
		case 0x60:
		case 0x70:
			TWCR |= (1 << TWINT) | (1 << TWEN) | (1 << TWIE) | (1 << TWEA);
 570:	ec eb       	ldi	r30, 0xBC	; 188
 572:	f0 e0       	ldi	r31, 0x00	; 0
 574:	80 81       	ld	r24, Z
 576:	85 6c       	ori	r24, 0xC5	; 197
 578:	80 83       	st	Z, r24
			break;
 57a:	4d c0       	rjmp	.+154    	; 0x616 <__vector_24+0xfe>
		case 0x80:
		case 0x90:
			dato_temperatura = TWDR;
 57c:	80 91 bb 00 	lds	r24, 0x00BB	; 0x8000bb <__TEXT_REGION_LENGTH__+0x7f80bb>
 580:	80 93 1d 01 	sts	0x011D, r24	; 0x80011d <dato_temperatura>
			if (bandera_nuestra)
 584:	90 91 1c 01 	lds	r25, 0x011C	; 0x80011c <bandera_nuestra>
 588:	99 23       	and	r25, r25
 58a:	29 f0       	breq	.+10     	; 0x596 <__vector_24+0x7e>
			{
				temperatura = dato_temperatura;
 58c:	80 93 26 01 	sts	0x0126, r24	; 0x800126 <temperatura>
				bandera_nuestra = 0;
 590:	10 92 1c 01 	sts	0x011C, r1	; 0x80011c <bandera_nuestra>
 594:	0b c0       	rjmp	.+22     	; 0x5ac <__vector_24+0x94>
			}else{
				buffer = TWDR;
 596:	80 91 bb 00 	lds	r24, 0x00BB	; 0x8000bb <__TEXT_REGION_LENGTH__+0x7f80bb>
 59a:	80 93 23 01 	sts	0x0123, r24	; 0x800123 <buffer>
				if (buffer == 'K')
 59e:	8b 34       	cpi	r24, 0x4B	; 75
 5a0:	29 f4       	brne	.+10     	; 0x5ac <__vector_24+0x94>
				{
					bandera_nuestra = 1;
 5a2:	81 e0       	ldi	r24, 0x01	; 1
 5a4:	80 93 1c 01 	sts	0x011C, r24	; 0x80011c <bandera_nuestra>
					buffer = 0;
 5a8:	10 92 23 01 	sts	0x0123, r1	; 0x800123 <buffer>
				}
			}
			TWCR = (1 << TWINT) | (1 << TWEN) | (1 << TWIE) | (1 << TWEA);
 5ac:	85 ec       	ldi	r24, 0xC5	; 197
 5ae:	80 93 bc 00 	sts	0x00BC, r24	; 0x8000bc <__TEXT_REGION_LENGTH__+0x7f80bc>
			break;
 5b2:	31 c0       	rjmp	.+98     	; 0x616 <__vector_24+0xfe>
		// Enviar datos desde slave
		case 0xA8: //SLA+R
		case 0xB8: //Dato enviado, ACK --> Slave
			//PORTC |= (1 << PORTC3);
			
			if (indice == 0)
 5b4:	80 91 18 01 	lds	r24, 0x0118	; 0x800118 <__data_end>
 5b8:	81 11       	cpse	r24, r1
 5ba:	07 c0       	rjmp	.+14     	; 0x5ca <__vector_24+0xb2>
			{
				indice = 1;
 5bc:	81 e0       	ldi	r24, 0x01	; 1
 5be:	80 93 18 01 	sts	0x0118, r24	; 0x800118 <__data_end>
				TWDR = byte_h;
 5c2:	80 91 24 01 	lds	r24, 0x0124	; 0x800124 <byte_h>
 5c6:	80 93 bb 00 	sts	0x00BB, r24	; 0x8000bb <__TEXT_REGION_LENGTH__+0x7f80bb>
			}
			if (indice == 1)
 5ca:	80 91 18 01 	lds	r24, 0x0118	; 0x800118 <__data_end>
 5ce:	81 30       	cpi	r24, 0x01	; 1
 5d0:	39 f4       	brne	.+14     	; 0x5e0 <__vector_24+0xc8>
			{
				indice = 2;
 5d2:	82 e0       	ldi	r24, 0x02	; 2
 5d4:	80 93 18 01 	sts	0x0118, r24	; 0x800118 <__data_end>
				TWDR = byte_m;
 5d8:	80 91 25 01 	lds	r24, 0x0125	; 0x800125 <byte_m>
 5dc:	80 93 bb 00 	sts	0x00BB, r24	; 0x8000bb <__TEXT_REGION_LENGTH__+0x7f80bb>
			}
			if (indice == 2)
 5e0:	80 91 18 01 	lds	r24, 0x0118	; 0x800118 <__data_end>
 5e4:	82 30       	cpi	r24, 0x02	; 2
 5e6:	31 f4       	brne	.+12     	; 0x5f4 <__vector_24+0xdc>
			{
				indice = 0;
 5e8:	10 92 18 01 	sts	0x0118, r1	; 0x800118 <__data_end>
				TWDR = byte_l;
 5ec:	80 91 19 01 	lds	r24, 0x0119	; 0x800119 <byte_l>
 5f0:	80 93 bb 00 	sts	0x00BB, r24	; 0x8000bb <__TEXT_REGION_LENGTH__+0x7f80bb>
			}
			
			TWCR = (1 << TWINT) | (1 << TWEN) | (1 << TWIE) | (1 << TWEA);
 5f4:	85 ec       	ldi	r24, 0xC5	; 197
 5f6:	80 93 bc 00 	sts	0x00BC, r24	; 0x8000bc <__TEXT_REGION_LENGTH__+0x7f80bc>
			break;
 5fa:	0d c0       	rjmp	.+26     	; 0x616 <__vector_24+0xfe>
		case 0xC0: //Dato transmitido, ACK --> slave
		case 0xC8: //Ultimo dato transmitido
			TWCR = 0;
 5fc:	ec eb       	ldi	r30, 0xBC	; 188
 5fe:	f0 e0       	ldi	r31, 0x00	; 0
 600:	10 82       	st	Z, r1
			TWCR = (1 << TWEN) | (1 << TWIE) | (1 << TWEA); //(1 << TWINT)
 602:	85 e4       	ldi	r24, 0x45	; 69
 604:	80 83       	st	Z, r24
			break;
 606:	07 c0       	rjmp	.+14     	; 0x616 <__vector_24+0xfe>
		case 0xA0: //STOP | R_START recibido
			TWCR = (1 << TWINT) | (1 << TWEN) | (1 << TWIE) | (1 << TWEA);
 608:	85 ec       	ldi	r24, 0xC5	; 197
 60a:	80 93 bc 00 	sts	0x00BC, r24	; 0x8000bc <__TEXT_REGION_LENGTH__+0x7f80bc>
			break;
 60e:	03 c0       	rjmp	.+6      	; 0x616 <__vector_24+0xfe>
		//Errores
		default:
			TWCR = (1 << TWINT) | (1 << TWEN) | (1 << TWIE) | (1 << TWEA);
 610:	85 ec       	ldi	r24, 0xC5	; 197
 612:	80 93 bc 00 	sts	0x00BC, r24	; 0x8000bc <__TEXT_REGION_LENGTH__+0x7f80bc>
			break;
	}
}
 616:	ff 91       	pop	r31
 618:	ef 91       	pop	r30
 61a:	9f 91       	pop	r25
 61c:	8f 91       	pop	r24
 61e:	0f 90       	pop	r0
 620:	0f be       	out	0x3f, r0	; 63
 622:	0f 90       	pop	r0
 624:	1f 90       	pop	r1
 626:	18 95       	reti

00000628 <init_PWM1>:
// Librerias
#include "pwm1.h"

// NON-Interrupt subroutines
// El PWM sirve para el servomotor, este genera una señal que hace que se mueva
void init_PWM1(uint16_t TOP){
 628:	9c 01       	movw	r18, r24
	DDRB |= (1 << PORTB1) | (1 << PORTB2);										// Salida para servo1 (PB1) Y servo 2 (PB2)
 62a:	94 b1       	in	r25, 0x04	; 4
 62c:	96 60       	ori	r25, 0x06	; 6
 62e:	94 b9       	out	0x04, r25	; 4
	TCCR1A = 0;																	// LIMPIAR TCCRA
 630:	e0 e8       	ldi	r30, 0x80	; 128
 632:	f0 e0       	ldi	r31, 0x00	; 0
 634:	10 82       	st	Z, r1
	TCCR1A = (1 << COM1A1) | (1 << COM1B1) | (1 << WGM11);						// Polaridad no invertido (OC1A para servo1 y OC1B para servo2) y fast pwm (parte baja)
 636:	82 ea       	ldi	r24, 0xA2	; 162
 638:	80 83       	st	Z, r24
	TCCR1B = 0;																	// LIMPIAR TCCRB
 63a:	e1 e8       	ldi	r30, 0x81	; 129
 63c:	f0 e0       	ldi	r31, 0x00	; 0
 63e:	10 82       	st	Z, r1
	TCCR1B = (1 << WGM13) | (1 << WGM12);										// MODO FAST PWM (parte alta)
 640:	88 e1       	ldi	r24, 0x18	; 24
 642:	80 83       	st	Z, r24
	TCCR1B |= (1 << CS11);														// PRESCALER PWM 8
 644:	90 81       	ld	r25, Z
 646:	92 60       	ori	r25, 0x02	; 2
 648:	90 83       	st	Z, r25
	//TCCR1B |= (1 << ICNC1);														// noise canceler
	ICR1 = TOP;																	// valor maximo para ICR1 "19999"
 64a:	30 93 87 00 	sts	0x0087, r19	; 0x800087 <__TEXT_REGION_LENGTH__+0x7f8087>
 64e:	20 93 86 00 	sts	0x0086, r18	; 0x800086 <__TEXT_REGION_LENGTH__+0x7f8086>
 652:	08 95       	ret

00000654 <pulso_PWM1>:
}

// El registro OCR1A revisa cuanto dura el pulso en PB1 (servo) en cada ciclo PWM, el servo lee el pulso y se mueve segun la posicion que le diga
void pulso_PWM1(uint16_t pulso){
	//OCR1A = 1000 + ((uint32_t)pulso * 4000 / 180);
	OCR1A = 20.05 * (float)pulso + 1200.0;												// base
 654:	bc 01       	movw	r22, r24
 656:	80 e0       	ldi	r24, 0x00	; 0
 658:	90 e0       	ldi	r25, 0x00	; 0
 65a:	0e 94 5c 04 	call	0x8b8	; 0x8b8 <__floatunsisf>
 65e:	26 e6       	ldi	r18, 0x66	; 102
 660:	36 e6       	ldi	r19, 0x66	; 102
 662:	40 ea       	ldi	r20, 0xA0	; 160
 664:	51 e4       	ldi	r21, 0x41	; 65
 666:	0e 94 0e 05 	call	0xa1c	; 0xa1c <__mulsf3>
 66a:	20 e0       	ldi	r18, 0x00	; 0
 66c:	30 e0       	ldi	r19, 0x00	; 0
 66e:	46 e9       	ldi	r20, 0x96	; 150
 670:	54 e4       	ldi	r21, 0x44	; 68
 672:	0e 94 43 03 	call	0x686	; 0x686 <__addsf3>
 676:	0e 94 2d 04 	call	0x85a	; 0x85a <__fixunssfsi>
 67a:	70 93 89 00 	sts	0x0089, r23	; 0x800089 <__TEXT_REGION_LENGTH__+0x7f8089>
 67e:	60 93 88 00 	sts	0x0088, r22	; 0x800088 <__TEXT_REGION_LENGTH__+0x7f8088>
 682:	08 95       	ret

00000684 <__subsf3>:
 684:	50 58       	subi	r21, 0x80	; 128

00000686 <__addsf3>:
 686:	bb 27       	eor	r27, r27
 688:	aa 27       	eor	r26, r26
 68a:	0e 94 5a 03 	call	0x6b4	; 0x6b4 <__addsf3x>
 68e:	0c 94 d4 04 	jmp	0x9a8	; 0x9a8 <__fp_round>
 692:	0e 94 c6 04 	call	0x98c	; 0x98c <__fp_pscA>
 696:	38 f0       	brcs	.+14     	; 0x6a6 <__addsf3+0x20>
 698:	0e 94 cd 04 	call	0x99a	; 0x99a <__fp_pscB>
 69c:	20 f0       	brcs	.+8      	; 0x6a6 <__addsf3+0x20>
 69e:	39 f4       	brne	.+14     	; 0x6ae <__addsf3+0x28>
 6a0:	9f 3f       	cpi	r25, 0xFF	; 255
 6a2:	19 f4       	brne	.+6      	; 0x6aa <__addsf3+0x24>
 6a4:	26 f4       	brtc	.+8      	; 0x6ae <__addsf3+0x28>
 6a6:	0c 94 c3 04 	jmp	0x986	; 0x986 <__fp_nan>
 6aa:	0e f4       	brtc	.+2      	; 0x6ae <__addsf3+0x28>
 6ac:	e0 95       	com	r30
 6ae:	e7 fb       	bst	r30, 7
 6b0:	0c 94 bd 04 	jmp	0x97a	; 0x97a <__fp_inf>

000006b4 <__addsf3x>:
 6b4:	e9 2f       	mov	r30, r25
 6b6:	0e 94 e5 04 	call	0x9ca	; 0x9ca <__fp_split3>
 6ba:	58 f3       	brcs	.-42     	; 0x692 <__addsf3+0xc>
 6bc:	ba 17       	cp	r27, r26
 6be:	62 07       	cpc	r22, r18
 6c0:	73 07       	cpc	r23, r19
 6c2:	84 07       	cpc	r24, r20
 6c4:	95 07       	cpc	r25, r21
 6c6:	20 f0       	brcs	.+8      	; 0x6d0 <__addsf3x+0x1c>
 6c8:	79 f4       	brne	.+30     	; 0x6e8 <__addsf3x+0x34>
 6ca:	a6 f5       	brtc	.+104    	; 0x734 <__addsf3x+0x80>
 6cc:	0c 94 07 05 	jmp	0xa0e	; 0xa0e <__fp_zero>
 6d0:	0e f4       	brtc	.+2      	; 0x6d4 <__addsf3x+0x20>
 6d2:	e0 95       	com	r30
 6d4:	0b 2e       	mov	r0, r27
 6d6:	ba 2f       	mov	r27, r26
 6d8:	a0 2d       	mov	r26, r0
 6da:	0b 01       	movw	r0, r22
 6dc:	b9 01       	movw	r22, r18
 6de:	90 01       	movw	r18, r0
 6e0:	0c 01       	movw	r0, r24
 6e2:	ca 01       	movw	r24, r20
 6e4:	a0 01       	movw	r20, r0
 6e6:	11 24       	eor	r1, r1
 6e8:	ff 27       	eor	r31, r31
 6ea:	59 1b       	sub	r21, r25
 6ec:	99 f0       	breq	.+38     	; 0x714 <__addsf3x+0x60>
 6ee:	59 3f       	cpi	r21, 0xF9	; 249
 6f0:	50 f4       	brcc	.+20     	; 0x706 <__addsf3x+0x52>
 6f2:	50 3e       	cpi	r21, 0xE0	; 224
 6f4:	68 f1       	brcs	.+90     	; 0x750 <__addsf3x+0x9c>
 6f6:	1a 16       	cp	r1, r26
 6f8:	f0 40       	sbci	r31, 0x00	; 0
 6fa:	a2 2f       	mov	r26, r18
 6fc:	23 2f       	mov	r18, r19
 6fe:	34 2f       	mov	r19, r20
 700:	44 27       	eor	r20, r20
 702:	58 5f       	subi	r21, 0xF8	; 248
 704:	f3 cf       	rjmp	.-26     	; 0x6ec <__addsf3x+0x38>
 706:	46 95       	lsr	r20
 708:	37 95       	ror	r19
 70a:	27 95       	ror	r18
 70c:	a7 95       	ror	r26
 70e:	f0 40       	sbci	r31, 0x00	; 0
 710:	53 95       	inc	r21
 712:	c9 f7       	brne	.-14     	; 0x706 <__addsf3x+0x52>
 714:	7e f4       	brtc	.+30     	; 0x734 <__addsf3x+0x80>
 716:	1f 16       	cp	r1, r31
 718:	ba 0b       	sbc	r27, r26
 71a:	62 0b       	sbc	r22, r18
 71c:	73 0b       	sbc	r23, r19
 71e:	84 0b       	sbc	r24, r20
 720:	ba f0       	brmi	.+46     	; 0x750 <__addsf3x+0x9c>
 722:	91 50       	subi	r25, 0x01	; 1
 724:	a1 f0       	breq	.+40     	; 0x74e <__addsf3x+0x9a>
 726:	ff 0f       	add	r31, r31
 728:	bb 1f       	adc	r27, r27
 72a:	66 1f       	adc	r22, r22
 72c:	77 1f       	adc	r23, r23
 72e:	88 1f       	adc	r24, r24
 730:	c2 f7       	brpl	.-16     	; 0x722 <__addsf3x+0x6e>
 732:	0e c0       	rjmp	.+28     	; 0x750 <__addsf3x+0x9c>
 734:	ba 0f       	add	r27, r26
 736:	62 1f       	adc	r22, r18
 738:	73 1f       	adc	r23, r19
 73a:	84 1f       	adc	r24, r20
 73c:	48 f4       	brcc	.+18     	; 0x750 <__addsf3x+0x9c>
 73e:	87 95       	ror	r24
 740:	77 95       	ror	r23
 742:	67 95       	ror	r22
 744:	b7 95       	ror	r27
 746:	f7 95       	ror	r31
 748:	9e 3f       	cpi	r25, 0xFE	; 254
 74a:	08 f0       	brcs	.+2      	; 0x74e <__addsf3x+0x9a>
 74c:	b0 cf       	rjmp	.-160    	; 0x6ae <__addsf3+0x28>
 74e:	93 95       	inc	r25
 750:	88 0f       	add	r24, r24
 752:	08 f0       	brcs	.+2      	; 0x756 <__addsf3x+0xa2>
 754:	99 27       	eor	r25, r25
 756:	ee 0f       	add	r30, r30
 758:	97 95       	ror	r25
 75a:	87 95       	ror	r24
 75c:	08 95       	ret

0000075e <__cmpsf2>:
 75e:	0e 94 99 04 	call	0x932	; 0x932 <__fp_cmp>
 762:	08 f4       	brcc	.+2      	; 0x766 <__cmpsf2+0x8>
 764:	81 e0       	ldi	r24, 0x01	; 1
 766:	08 95       	ret

00000768 <__divsf3>:
 768:	0e 94 c8 03 	call	0x790	; 0x790 <__divsf3x>
 76c:	0c 94 d4 04 	jmp	0x9a8	; 0x9a8 <__fp_round>
 770:	0e 94 cd 04 	call	0x99a	; 0x99a <__fp_pscB>
 774:	58 f0       	brcs	.+22     	; 0x78c <__divsf3+0x24>
 776:	0e 94 c6 04 	call	0x98c	; 0x98c <__fp_pscA>
 77a:	40 f0       	brcs	.+16     	; 0x78c <__divsf3+0x24>
 77c:	29 f4       	brne	.+10     	; 0x788 <__divsf3+0x20>
 77e:	5f 3f       	cpi	r21, 0xFF	; 255
 780:	29 f0       	breq	.+10     	; 0x78c <__divsf3+0x24>
 782:	0c 94 bd 04 	jmp	0x97a	; 0x97a <__fp_inf>
 786:	51 11       	cpse	r21, r1
 788:	0c 94 08 05 	jmp	0xa10	; 0xa10 <__fp_szero>
 78c:	0c 94 c3 04 	jmp	0x986	; 0x986 <__fp_nan>

00000790 <__divsf3x>:
 790:	0e 94 e5 04 	call	0x9ca	; 0x9ca <__fp_split3>
 794:	68 f3       	brcs	.-38     	; 0x770 <__divsf3+0x8>

00000796 <__divsf3_pse>:
 796:	99 23       	and	r25, r25
 798:	b1 f3       	breq	.-20     	; 0x786 <__divsf3+0x1e>
 79a:	55 23       	and	r21, r21
 79c:	91 f3       	breq	.-28     	; 0x782 <__divsf3+0x1a>
 79e:	95 1b       	sub	r25, r21
 7a0:	55 0b       	sbc	r21, r21
 7a2:	bb 27       	eor	r27, r27
 7a4:	aa 27       	eor	r26, r26
 7a6:	62 17       	cp	r22, r18
 7a8:	73 07       	cpc	r23, r19
 7aa:	84 07       	cpc	r24, r20
 7ac:	38 f0       	brcs	.+14     	; 0x7bc <__divsf3_pse+0x26>
 7ae:	9f 5f       	subi	r25, 0xFF	; 255
 7b0:	5f 4f       	sbci	r21, 0xFF	; 255
 7b2:	22 0f       	add	r18, r18
 7b4:	33 1f       	adc	r19, r19
 7b6:	44 1f       	adc	r20, r20
 7b8:	aa 1f       	adc	r26, r26
 7ba:	a9 f3       	breq	.-22     	; 0x7a6 <__divsf3_pse+0x10>
 7bc:	35 d0       	rcall	.+106    	; 0x828 <__DATA_REGION_LENGTH__+0x28>
 7be:	0e 2e       	mov	r0, r30
 7c0:	3a f0       	brmi	.+14     	; 0x7d0 <__divsf3_pse+0x3a>
 7c2:	e0 e8       	ldi	r30, 0x80	; 128
 7c4:	32 d0       	rcall	.+100    	; 0x82a <__DATA_REGION_LENGTH__+0x2a>
 7c6:	91 50       	subi	r25, 0x01	; 1
 7c8:	50 40       	sbci	r21, 0x00	; 0
 7ca:	e6 95       	lsr	r30
 7cc:	00 1c       	adc	r0, r0
 7ce:	ca f7       	brpl	.-14     	; 0x7c2 <__divsf3_pse+0x2c>
 7d0:	2b d0       	rcall	.+86     	; 0x828 <__DATA_REGION_LENGTH__+0x28>
 7d2:	fe 2f       	mov	r31, r30
 7d4:	29 d0       	rcall	.+82     	; 0x828 <__DATA_REGION_LENGTH__+0x28>
 7d6:	66 0f       	add	r22, r22
 7d8:	77 1f       	adc	r23, r23
 7da:	88 1f       	adc	r24, r24
 7dc:	bb 1f       	adc	r27, r27
 7de:	26 17       	cp	r18, r22
 7e0:	37 07       	cpc	r19, r23
 7e2:	48 07       	cpc	r20, r24
 7e4:	ab 07       	cpc	r26, r27
 7e6:	b0 e8       	ldi	r27, 0x80	; 128
 7e8:	09 f0       	breq	.+2      	; 0x7ec <__divsf3_pse+0x56>
 7ea:	bb 0b       	sbc	r27, r27
 7ec:	80 2d       	mov	r24, r0
 7ee:	bf 01       	movw	r22, r30
 7f0:	ff 27       	eor	r31, r31
 7f2:	93 58       	subi	r25, 0x83	; 131
 7f4:	5f 4f       	sbci	r21, 0xFF	; 255
 7f6:	3a f0       	brmi	.+14     	; 0x806 <__DATA_REGION_LENGTH__+0x6>
 7f8:	9e 3f       	cpi	r25, 0xFE	; 254
 7fa:	51 05       	cpc	r21, r1
 7fc:	78 f0       	brcs	.+30     	; 0x81c <__DATA_REGION_LENGTH__+0x1c>
 7fe:	0c 94 bd 04 	jmp	0x97a	; 0x97a <__fp_inf>
 802:	0c 94 08 05 	jmp	0xa10	; 0xa10 <__fp_szero>
 806:	5f 3f       	cpi	r21, 0xFF	; 255
 808:	e4 f3       	brlt	.-8      	; 0x802 <__DATA_REGION_LENGTH__+0x2>
 80a:	98 3e       	cpi	r25, 0xE8	; 232
 80c:	d4 f3       	brlt	.-12     	; 0x802 <__DATA_REGION_LENGTH__+0x2>
 80e:	86 95       	lsr	r24
 810:	77 95       	ror	r23
 812:	67 95       	ror	r22
 814:	b7 95       	ror	r27
 816:	f7 95       	ror	r31
 818:	9f 5f       	subi	r25, 0xFF	; 255
 81a:	c9 f7       	brne	.-14     	; 0x80e <__DATA_REGION_LENGTH__+0xe>
 81c:	88 0f       	add	r24, r24
 81e:	91 1d       	adc	r25, r1
 820:	96 95       	lsr	r25
 822:	87 95       	ror	r24
 824:	97 f9       	bld	r25, 7
 826:	08 95       	ret
 828:	e1 e0       	ldi	r30, 0x01	; 1
 82a:	66 0f       	add	r22, r22
 82c:	77 1f       	adc	r23, r23
 82e:	88 1f       	adc	r24, r24
 830:	bb 1f       	adc	r27, r27
 832:	62 17       	cp	r22, r18
 834:	73 07       	cpc	r23, r19
 836:	84 07       	cpc	r24, r20
 838:	ba 07       	cpc	r27, r26
 83a:	20 f0       	brcs	.+8      	; 0x844 <__DATA_REGION_LENGTH__+0x44>
 83c:	62 1b       	sub	r22, r18
 83e:	73 0b       	sbc	r23, r19
 840:	84 0b       	sbc	r24, r20
 842:	ba 0b       	sbc	r27, r26
 844:	ee 1f       	adc	r30, r30
 846:	88 f7       	brcc	.-30     	; 0x82a <__DATA_REGION_LENGTH__+0x2a>
 848:	e0 95       	com	r30
 84a:	08 95       	ret

0000084c <__fixsfsi>:
 84c:	0e 94 2d 04 	call	0x85a	; 0x85a <__fixunssfsi>
 850:	68 94       	set
 852:	b1 11       	cpse	r27, r1
 854:	0c 94 08 05 	jmp	0xa10	; 0xa10 <__fp_szero>
 858:	08 95       	ret

0000085a <__fixunssfsi>:
 85a:	0e 94 ed 04 	call	0x9da	; 0x9da <__fp_splitA>
 85e:	88 f0       	brcs	.+34     	; 0x882 <__fixunssfsi+0x28>
 860:	9f 57       	subi	r25, 0x7F	; 127
 862:	98 f0       	brcs	.+38     	; 0x88a <__fixunssfsi+0x30>
 864:	b9 2f       	mov	r27, r25
 866:	99 27       	eor	r25, r25
 868:	b7 51       	subi	r27, 0x17	; 23
 86a:	b0 f0       	brcs	.+44     	; 0x898 <__fixunssfsi+0x3e>
 86c:	e1 f0       	breq	.+56     	; 0x8a6 <__fixunssfsi+0x4c>
 86e:	66 0f       	add	r22, r22
 870:	77 1f       	adc	r23, r23
 872:	88 1f       	adc	r24, r24
 874:	99 1f       	adc	r25, r25
 876:	1a f0       	brmi	.+6      	; 0x87e <__fixunssfsi+0x24>
 878:	ba 95       	dec	r27
 87a:	c9 f7       	brne	.-14     	; 0x86e <__fixunssfsi+0x14>
 87c:	14 c0       	rjmp	.+40     	; 0x8a6 <__fixunssfsi+0x4c>
 87e:	b1 30       	cpi	r27, 0x01	; 1
 880:	91 f0       	breq	.+36     	; 0x8a6 <__fixunssfsi+0x4c>
 882:	0e 94 07 05 	call	0xa0e	; 0xa0e <__fp_zero>
 886:	b1 e0       	ldi	r27, 0x01	; 1
 888:	08 95       	ret
 88a:	0c 94 07 05 	jmp	0xa0e	; 0xa0e <__fp_zero>
 88e:	67 2f       	mov	r22, r23
 890:	78 2f       	mov	r23, r24
 892:	88 27       	eor	r24, r24
 894:	b8 5f       	subi	r27, 0xF8	; 248
 896:	39 f0       	breq	.+14     	; 0x8a6 <__fixunssfsi+0x4c>
 898:	b9 3f       	cpi	r27, 0xF9	; 249
 89a:	cc f3       	brlt	.-14     	; 0x88e <__fixunssfsi+0x34>
 89c:	86 95       	lsr	r24
 89e:	77 95       	ror	r23
 8a0:	67 95       	ror	r22
 8a2:	b3 95       	inc	r27
 8a4:	d9 f7       	brne	.-10     	; 0x89c <__fixunssfsi+0x42>
 8a6:	3e f4       	brtc	.+14     	; 0x8b6 <__fixunssfsi+0x5c>
 8a8:	90 95       	com	r25
 8aa:	80 95       	com	r24
 8ac:	70 95       	com	r23
 8ae:	61 95       	neg	r22
 8b0:	7f 4f       	sbci	r23, 0xFF	; 255
 8b2:	8f 4f       	sbci	r24, 0xFF	; 255
 8b4:	9f 4f       	sbci	r25, 0xFF	; 255
 8b6:	08 95       	ret

000008b8 <__floatunsisf>:
 8b8:	e8 94       	clt
 8ba:	09 c0       	rjmp	.+18     	; 0x8ce <__floatsisf+0x12>

000008bc <__floatsisf>:
 8bc:	97 fb       	bst	r25, 7
 8be:	3e f4       	brtc	.+14     	; 0x8ce <__floatsisf+0x12>
 8c0:	90 95       	com	r25
 8c2:	80 95       	com	r24
 8c4:	70 95       	com	r23
 8c6:	61 95       	neg	r22
 8c8:	7f 4f       	sbci	r23, 0xFF	; 255
 8ca:	8f 4f       	sbci	r24, 0xFF	; 255
 8cc:	9f 4f       	sbci	r25, 0xFF	; 255
 8ce:	99 23       	and	r25, r25
 8d0:	a9 f0       	breq	.+42     	; 0x8fc <__floatsisf+0x40>
 8d2:	f9 2f       	mov	r31, r25
 8d4:	96 e9       	ldi	r25, 0x96	; 150
 8d6:	bb 27       	eor	r27, r27
 8d8:	93 95       	inc	r25
 8da:	f6 95       	lsr	r31
 8dc:	87 95       	ror	r24
 8de:	77 95       	ror	r23
 8e0:	67 95       	ror	r22
 8e2:	b7 95       	ror	r27
 8e4:	f1 11       	cpse	r31, r1
 8e6:	f8 cf       	rjmp	.-16     	; 0x8d8 <__floatsisf+0x1c>
 8e8:	fa f4       	brpl	.+62     	; 0x928 <__stack+0x29>
 8ea:	bb 0f       	add	r27, r27
 8ec:	11 f4       	brne	.+4      	; 0x8f2 <__floatsisf+0x36>
 8ee:	60 ff       	sbrs	r22, 0
 8f0:	1b c0       	rjmp	.+54     	; 0x928 <__stack+0x29>
 8f2:	6f 5f       	subi	r22, 0xFF	; 255
 8f4:	7f 4f       	sbci	r23, 0xFF	; 255
 8f6:	8f 4f       	sbci	r24, 0xFF	; 255
 8f8:	9f 4f       	sbci	r25, 0xFF	; 255
 8fa:	16 c0       	rjmp	.+44     	; 0x928 <__stack+0x29>
 8fc:	88 23       	and	r24, r24
 8fe:	11 f0       	breq	.+4      	; 0x904 <__stack+0x5>
 900:	96 e9       	ldi	r25, 0x96	; 150
 902:	11 c0       	rjmp	.+34     	; 0x926 <__stack+0x27>
 904:	77 23       	and	r23, r23
 906:	21 f0       	breq	.+8      	; 0x910 <__stack+0x11>
 908:	9e e8       	ldi	r25, 0x8E	; 142
 90a:	87 2f       	mov	r24, r23
 90c:	76 2f       	mov	r23, r22
 90e:	05 c0       	rjmp	.+10     	; 0x91a <__stack+0x1b>
 910:	66 23       	and	r22, r22
 912:	71 f0       	breq	.+28     	; 0x930 <__stack+0x31>
 914:	96 e8       	ldi	r25, 0x86	; 134
 916:	86 2f       	mov	r24, r22
 918:	70 e0       	ldi	r23, 0x00	; 0
 91a:	60 e0       	ldi	r22, 0x00	; 0
 91c:	2a f0       	brmi	.+10     	; 0x928 <__stack+0x29>
 91e:	9a 95       	dec	r25
 920:	66 0f       	add	r22, r22
 922:	77 1f       	adc	r23, r23
 924:	88 1f       	adc	r24, r24
 926:	da f7       	brpl	.-10     	; 0x91e <__stack+0x1f>
 928:	88 0f       	add	r24, r24
 92a:	96 95       	lsr	r25
 92c:	87 95       	ror	r24
 92e:	97 f9       	bld	r25, 7
 930:	08 95       	ret

00000932 <__fp_cmp>:
 932:	99 0f       	add	r25, r25
 934:	00 08       	sbc	r0, r0
 936:	55 0f       	add	r21, r21
 938:	aa 0b       	sbc	r26, r26
 93a:	e0 e8       	ldi	r30, 0x80	; 128
 93c:	fe ef       	ldi	r31, 0xFE	; 254
 93e:	16 16       	cp	r1, r22
 940:	17 06       	cpc	r1, r23
 942:	e8 07       	cpc	r30, r24
 944:	f9 07       	cpc	r31, r25
 946:	c0 f0       	brcs	.+48     	; 0x978 <__fp_cmp+0x46>
 948:	12 16       	cp	r1, r18
 94a:	13 06       	cpc	r1, r19
 94c:	e4 07       	cpc	r30, r20
 94e:	f5 07       	cpc	r31, r21
 950:	98 f0       	brcs	.+38     	; 0x978 <__fp_cmp+0x46>
 952:	62 1b       	sub	r22, r18
 954:	73 0b       	sbc	r23, r19
 956:	84 0b       	sbc	r24, r20
 958:	95 0b       	sbc	r25, r21
 95a:	39 f4       	brne	.+14     	; 0x96a <__fp_cmp+0x38>
 95c:	0a 26       	eor	r0, r26
 95e:	61 f0       	breq	.+24     	; 0x978 <__fp_cmp+0x46>
 960:	23 2b       	or	r18, r19
 962:	24 2b       	or	r18, r20
 964:	25 2b       	or	r18, r21
 966:	21 f4       	brne	.+8      	; 0x970 <__fp_cmp+0x3e>
 968:	08 95       	ret
 96a:	0a 26       	eor	r0, r26
 96c:	09 f4       	brne	.+2      	; 0x970 <__fp_cmp+0x3e>
 96e:	a1 40       	sbci	r26, 0x01	; 1
 970:	a6 95       	lsr	r26
 972:	8f ef       	ldi	r24, 0xFF	; 255
 974:	81 1d       	adc	r24, r1
 976:	81 1d       	adc	r24, r1
 978:	08 95       	ret

0000097a <__fp_inf>:
 97a:	97 f9       	bld	r25, 7
 97c:	9f 67       	ori	r25, 0x7F	; 127
 97e:	80 e8       	ldi	r24, 0x80	; 128
 980:	70 e0       	ldi	r23, 0x00	; 0
 982:	60 e0       	ldi	r22, 0x00	; 0
 984:	08 95       	ret

00000986 <__fp_nan>:
 986:	9f ef       	ldi	r25, 0xFF	; 255
 988:	80 ec       	ldi	r24, 0xC0	; 192
 98a:	08 95       	ret

0000098c <__fp_pscA>:
 98c:	00 24       	eor	r0, r0
 98e:	0a 94       	dec	r0
 990:	16 16       	cp	r1, r22
 992:	17 06       	cpc	r1, r23
 994:	18 06       	cpc	r1, r24
 996:	09 06       	cpc	r0, r25
 998:	08 95       	ret

0000099a <__fp_pscB>:
 99a:	00 24       	eor	r0, r0
 99c:	0a 94       	dec	r0
 99e:	12 16       	cp	r1, r18
 9a0:	13 06       	cpc	r1, r19
 9a2:	14 06       	cpc	r1, r20
 9a4:	05 06       	cpc	r0, r21
 9a6:	08 95       	ret

000009a8 <__fp_round>:
 9a8:	09 2e       	mov	r0, r25
 9aa:	03 94       	inc	r0
 9ac:	00 0c       	add	r0, r0
 9ae:	11 f4       	brne	.+4      	; 0x9b4 <__fp_round+0xc>
 9b0:	88 23       	and	r24, r24
 9b2:	52 f0       	brmi	.+20     	; 0x9c8 <__fp_round+0x20>
 9b4:	bb 0f       	add	r27, r27
 9b6:	40 f4       	brcc	.+16     	; 0x9c8 <__fp_round+0x20>
 9b8:	bf 2b       	or	r27, r31
 9ba:	11 f4       	brne	.+4      	; 0x9c0 <__fp_round+0x18>
 9bc:	60 ff       	sbrs	r22, 0
 9be:	04 c0       	rjmp	.+8      	; 0x9c8 <__fp_round+0x20>
 9c0:	6f 5f       	subi	r22, 0xFF	; 255
 9c2:	7f 4f       	sbci	r23, 0xFF	; 255
 9c4:	8f 4f       	sbci	r24, 0xFF	; 255
 9c6:	9f 4f       	sbci	r25, 0xFF	; 255
 9c8:	08 95       	ret

000009ca <__fp_split3>:
 9ca:	57 fd       	sbrc	r21, 7
 9cc:	90 58       	subi	r25, 0x80	; 128
 9ce:	44 0f       	add	r20, r20
 9d0:	55 1f       	adc	r21, r21
 9d2:	59 f0       	breq	.+22     	; 0x9ea <__fp_splitA+0x10>
 9d4:	5f 3f       	cpi	r21, 0xFF	; 255
 9d6:	71 f0       	breq	.+28     	; 0x9f4 <__fp_splitA+0x1a>
 9d8:	47 95       	ror	r20

000009da <__fp_splitA>:
 9da:	88 0f       	add	r24, r24
 9dc:	97 fb       	bst	r25, 7
 9de:	99 1f       	adc	r25, r25
 9e0:	61 f0       	breq	.+24     	; 0x9fa <__fp_splitA+0x20>
 9e2:	9f 3f       	cpi	r25, 0xFF	; 255
 9e4:	79 f0       	breq	.+30     	; 0xa04 <__fp_splitA+0x2a>
 9e6:	87 95       	ror	r24
 9e8:	08 95       	ret
 9ea:	12 16       	cp	r1, r18
 9ec:	13 06       	cpc	r1, r19
 9ee:	14 06       	cpc	r1, r20
 9f0:	55 1f       	adc	r21, r21
 9f2:	f2 cf       	rjmp	.-28     	; 0x9d8 <__fp_split3+0xe>
 9f4:	46 95       	lsr	r20
 9f6:	f1 df       	rcall	.-30     	; 0x9da <__fp_splitA>
 9f8:	08 c0       	rjmp	.+16     	; 0xa0a <__fp_splitA+0x30>
 9fa:	16 16       	cp	r1, r22
 9fc:	17 06       	cpc	r1, r23
 9fe:	18 06       	cpc	r1, r24
 a00:	99 1f       	adc	r25, r25
 a02:	f1 cf       	rjmp	.-30     	; 0x9e6 <__fp_splitA+0xc>
 a04:	86 95       	lsr	r24
 a06:	71 05       	cpc	r23, r1
 a08:	61 05       	cpc	r22, r1
 a0a:	08 94       	sec
 a0c:	08 95       	ret

00000a0e <__fp_zero>:
 a0e:	e8 94       	clt

00000a10 <__fp_szero>:
 a10:	bb 27       	eor	r27, r27
 a12:	66 27       	eor	r22, r22
 a14:	77 27       	eor	r23, r23
 a16:	cb 01       	movw	r24, r22
 a18:	97 f9       	bld	r25, 7
 a1a:	08 95       	ret

00000a1c <__mulsf3>:
 a1c:	0e 94 21 05 	call	0xa42	; 0xa42 <__mulsf3x>
 a20:	0c 94 d4 04 	jmp	0x9a8	; 0x9a8 <__fp_round>
 a24:	0e 94 c6 04 	call	0x98c	; 0x98c <__fp_pscA>
 a28:	38 f0       	brcs	.+14     	; 0xa38 <__mulsf3+0x1c>
 a2a:	0e 94 cd 04 	call	0x99a	; 0x99a <__fp_pscB>
 a2e:	20 f0       	brcs	.+8      	; 0xa38 <__mulsf3+0x1c>
 a30:	95 23       	and	r25, r21
 a32:	11 f0       	breq	.+4      	; 0xa38 <__mulsf3+0x1c>
 a34:	0c 94 bd 04 	jmp	0x97a	; 0x97a <__fp_inf>
 a38:	0c 94 c3 04 	jmp	0x986	; 0x986 <__fp_nan>
 a3c:	11 24       	eor	r1, r1
 a3e:	0c 94 08 05 	jmp	0xa10	; 0xa10 <__fp_szero>

00000a42 <__mulsf3x>:
 a42:	0e 94 e5 04 	call	0x9ca	; 0x9ca <__fp_split3>
 a46:	70 f3       	brcs	.-36     	; 0xa24 <__mulsf3+0x8>

00000a48 <__mulsf3_pse>:
 a48:	95 9f       	mul	r25, r21
 a4a:	c1 f3       	breq	.-16     	; 0xa3c <__mulsf3+0x20>
 a4c:	95 0f       	add	r25, r21
 a4e:	50 e0       	ldi	r21, 0x00	; 0
 a50:	55 1f       	adc	r21, r21
 a52:	62 9f       	mul	r22, r18
 a54:	f0 01       	movw	r30, r0
 a56:	72 9f       	mul	r23, r18
 a58:	bb 27       	eor	r27, r27
 a5a:	f0 0d       	add	r31, r0
 a5c:	b1 1d       	adc	r27, r1
 a5e:	63 9f       	mul	r22, r19
 a60:	aa 27       	eor	r26, r26
 a62:	f0 0d       	add	r31, r0
 a64:	b1 1d       	adc	r27, r1
 a66:	aa 1f       	adc	r26, r26
 a68:	64 9f       	mul	r22, r20
 a6a:	66 27       	eor	r22, r22
 a6c:	b0 0d       	add	r27, r0
 a6e:	a1 1d       	adc	r26, r1
 a70:	66 1f       	adc	r22, r22
 a72:	82 9f       	mul	r24, r18
 a74:	22 27       	eor	r18, r18
 a76:	b0 0d       	add	r27, r0
 a78:	a1 1d       	adc	r26, r1
 a7a:	62 1f       	adc	r22, r18
 a7c:	73 9f       	mul	r23, r19
 a7e:	b0 0d       	add	r27, r0
 a80:	a1 1d       	adc	r26, r1
 a82:	62 1f       	adc	r22, r18
 a84:	83 9f       	mul	r24, r19
 a86:	a0 0d       	add	r26, r0
 a88:	61 1d       	adc	r22, r1
 a8a:	22 1f       	adc	r18, r18
 a8c:	74 9f       	mul	r23, r20
 a8e:	33 27       	eor	r19, r19
 a90:	a0 0d       	add	r26, r0
 a92:	61 1d       	adc	r22, r1
 a94:	23 1f       	adc	r18, r19
 a96:	84 9f       	mul	r24, r20
 a98:	60 0d       	add	r22, r0
 a9a:	21 1d       	adc	r18, r1
 a9c:	82 2f       	mov	r24, r18
 a9e:	76 2f       	mov	r23, r22
 aa0:	6a 2f       	mov	r22, r26
 aa2:	11 24       	eor	r1, r1
 aa4:	9f 57       	subi	r25, 0x7F	; 127
 aa6:	50 40       	sbci	r21, 0x00	; 0
 aa8:	9a f0       	brmi	.+38     	; 0xad0 <__mulsf3_pse+0x88>
 aaa:	f1 f0       	breq	.+60     	; 0xae8 <__mulsf3_pse+0xa0>
 aac:	88 23       	and	r24, r24
 aae:	4a f0       	brmi	.+18     	; 0xac2 <__mulsf3_pse+0x7a>
 ab0:	ee 0f       	add	r30, r30
 ab2:	ff 1f       	adc	r31, r31
 ab4:	bb 1f       	adc	r27, r27
 ab6:	66 1f       	adc	r22, r22
 ab8:	77 1f       	adc	r23, r23
 aba:	88 1f       	adc	r24, r24
 abc:	91 50       	subi	r25, 0x01	; 1
 abe:	50 40       	sbci	r21, 0x00	; 0
 ac0:	a9 f7       	brne	.-22     	; 0xaac <__mulsf3_pse+0x64>
 ac2:	9e 3f       	cpi	r25, 0xFE	; 254
 ac4:	51 05       	cpc	r21, r1
 ac6:	80 f0       	brcs	.+32     	; 0xae8 <__mulsf3_pse+0xa0>
 ac8:	0c 94 bd 04 	jmp	0x97a	; 0x97a <__fp_inf>
 acc:	0c 94 08 05 	jmp	0xa10	; 0xa10 <__fp_szero>
 ad0:	5f 3f       	cpi	r21, 0xFF	; 255
 ad2:	e4 f3       	brlt	.-8      	; 0xacc <__mulsf3_pse+0x84>
 ad4:	98 3e       	cpi	r25, 0xE8	; 232
 ad6:	d4 f3       	brlt	.-12     	; 0xacc <__mulsf3_pse+0x84>
 ad8:	86 95       	lsr	r24
 ada:	77 95       	ror	r23
 adc:	67 95       	ror	r22
 ade:	b7 95       	ror	r27
 ae0:	f7 95       	ror	r31
 ae2:	e7 95       	ror	r30
 ae4:	9f 5f       	subi	r25, 0xFF	; 255
 ae6:	c1 f7       	brne	.-16     	; 0xad8 <__mulsf3_pse+0x90>
 ae8:	fe 2b       	or	r31, r30
 aea:	88 0f       	add	r24, r24
 aec:	91 1d       	adc	r25, r1
 aee:	96 95       	lsr	r25
 af0:	87 95       	ror	r24
 af2:	97 f9       	bld	r25, 7
 af4:	08 95       	ret

00000af6 <__moddi3>:
 af6:	68 94       	set
 af8:	01 c0       	rjmp	.+2      	; 0xafc <__divdi3_moddi3>

00000afa <__divdi3>:
 afa:	e8 94       	clt

00000afc <__divdi3_moddi3>:
 afc:	f9 2f       	mov	r31, r25
 afe:	f1 2b       	or	r31, r17
 b00:	12 f0       	brmi	.+4      	; 0xb06 <__divdi3_moddi3+0xa>
 b02:	0c 94 af 05 	jmp	0xb5e	; 0xb5e <__udivdi3_umoddi3>
 b06:	a0 e0       	ldi	r26, 0x00	; 0
 b08:	b0 e0       	ldi	r27, 0x00	; 0
 b0a:	e9 e8       	ldi	r30, 0x89	; 137
 b0c:	f5 e0       	ldi	r31, 0x05	; 5
 b0e:	0c 94 21 06 	jmp	0xc42	; 0xc42 <__prologue_saves__+0xc>
 b12:	09 2e       	mov	r0, r25
 b14:	05 94       	asr	r0
 b16:	22 f4       	brpl	.+8      	; 0xb20 <__divdi3_moddi3+0x24>
 b18:	0e 94 0b 06 	call	0xc16	; 0xc16 <__negdi2>
 b1c:	11 23       	and	r17, r17
 b1e:	92 f4       	brpl	.+36     	; 0xb44 <__divdi3_moddi3+0x48>
 b20:	f0 e8       	ldi	r31, 0x80	; 128
 b22:	0f 26       	eor	r0, r31
 b24:	ff ef       	ldi	r31, 0xFF	; 255
 b26:	e0 94       	com	r14
 b28:	f0 94       	com	r15
 b2a:	00 95       	com	r16
 b2c:	10 95       	com	r17
 b2e:	b0 94       	com	r11
 b30:	c0 94       	com	r12
 b32:	d0 94       	com	r13
 b34:	a1 94       	neg	r10
 b36:	bf 0a       	sbc	r11, r31
 b38:	cf 0a       	sbc	r12, r31
 b3a:	df 0a       	sbc	r13, r31
 b3c:	ef 0a       	sbc	r14, r31
 b3e:	ff 0a       	sbc	r15, r31
 b40:	0f 0b       	sbc	r16, r31
 b42:	1f 0b       	sbc	r17, r31
 b44:	0e 94 ba 05 	call	0xb74	; 0xb74 <__udivmod64>
 b48:	07 fc       	sbrc	r0, 7
 b4a:	0e 94 0b 06 	call	0xc16	; 0xc16 <__negdi2>
 b4e:	cd b7       	in	r28, 0x3d	; 61
 b50:	de b7       	in	r29, 0x3e	; 62
 b52:	ec e0       	ldi	r30, 0x0C	; 12
 b54:	0c 94 3d 06 	jmp	0xc7a	; 0xc7a <__epilogue_restores__+0xc>

00000b58 <__umoddi3>:
 b58:	68 94       	set
 b5a:	01 c0       	rjmp	.+2      	; 0xb5e <__udivdi3_umoddi3>

00000b5c <__udivdi3>:
 b5c:	e8 94       	clt

00000b5e <__udivdi3_umoddi3>:
 b5e:	8f 92       	push	r8
 b60:	9f 92       	push	r9
 b62:	cf 93       	push	r28
 b64:	df 93       	push	r29
 b66:	0e 94 ba 05 	call	0xb74	; 0xb74 <__udivmod64>
 b6a:	df 91       	pop	r29
 b6c:	cf 91       	pop	r28
 b6e:	9f 90       	pop	r9
 b70:	8f 90       	pop	r8
 b72:	08 95       	ret

00000b74 <__udivmod64>:
 b74:	88 24       	eor	r8, r8
 b76:	99 24       	eor	r9, r9
 b78:	f4 01       	movw	r30, r8
 b7a:	e4 01       	movw	r28, r8
 b7c:	b0 e4       	ldi	r27, 0x40	; 64
 b7e:	9f 93       	push	r25
 b80:	aa 27       	eor	r26, r26
 b82:	9a 15       	cp	r25, r10
 b84:	8b 04       	cpc	r8, r11
 b86:	9c 04       	cpc	r9, r12
 b88:	ed 05       	cpc	r30, r13
 b8a:	fe 05       	cpc	r31, r14
 b8c:	cf 05       	cpc	r28, r15
 b8e:	d0 07       	cpc	r29, r16
 b90:	a1 07       	cpc	r26, r17
 b92:	98 f4       	brcc	.+38     	; 0xbba <__udivmod64+0x46>
 b94:	ad 2f       	mov	r26, r29
 b96:	dc 2f       	mov	r29, r28
 b98:	cf 2f       	mov	r28, r31
 b9a:	fe 2f       	mov	r31, r30
 b9c:	e9 2d       	mov	r30, r9
 b9e:	98 2c       	mov	r9, r8
 ba0:	89 2e       	mov	r8, r25
 ba2:	98 2f       	mov	r25, r24
 ba4:	87 2f       	mov	r24, r23
 ba6:	76 2f       	mov	r23, r22
 ba8:	65 2f       	mov	r22, r21
 baa:	54 2f       	mov	r21, r20
 bac:	43 2f       	mov	r20, r19
 bae:	32 2f       	mov	r19, r18
 bb0:	22 27       	eor	r18, r18
 bb2:	b8 50       	subi	r27, 0x08	; 8
 bb4:	31 f7       	brne	.-52     	; 0xb82 <__udivmod64+0xe>
 bb6:	bf 91       	pop	r27
 bb8:	27 c0       	rjmp	.+78     	; 0xc08 <__udivmod64+0x94>
 bba:	1b 2e       	mov	r1, r27
 bbc:	bf 91       	pop	r27
 bbe:	bb 27       	eor	r27, r27
 bc0:	22 0f       	add	r18, r18
 bc2:	33 1f       	adc	r19, r19
 bc4:	44 1f       	adc	r20, r20
 bc6:	55 1f       	adc	r21, r21
 bc8:	66 1f       	adc	r22, r22
 bca:	77 1f       	adc	r23, r23
 bcc:	88 1f       	adc	r24, r24
 bce:	99 1f       	adc	r25, r25
 bd0:	88 1c       	adc	r8, r8
 bd2:	99 1c       	adc	r9, r9
 bd4:	ee 1f       	adc	r30, r30
 bd6:	ff 1f       	adc	r31, r31
 bd8:	cc 1f       	adc	r28, r28
 bda:	dd 1f       	adc	r29, r29
 bdc:	aa 1f       	adc	r26, r26
 bde:	bb 1f       	adc	r27, r27
 be0:	8a 14       	cp	r8, r10
 be2:	9b 04       	cpc	r9, r11
 be4:	ec 05       	cpc	r30, r12
 be6:	fd 05       	cpc	r31, r13
 be8:	ce 05       	cpc	r28, r14
 bea:	df 05       	cpc	r29, r15
 bec:	a0 07       	cpc	r26, r16
 bee:	b1 07       	cpc	r27, r17
 bf0:	48 f0       	brcs	.+18     	; 0xc04 <__udivmod64+0x90>
 bf2:	8a 18       	sub	r8, r10
 bf4:	9b 08       	sbc	r9, r11
 bf6:	ec 09       	sbc	r30, r12
 bf8:	fd 09       	sbc	r31, r13
 bfa:	ce 09       	sbc	r28, r14
 bfc:	df 09       	sbc	r29, r15
 bfe:	a0 0b       	sbc	r26, r16
 c00:	b1 0b       	sbc	r27, r17
 c02:	21 60       	ori	r18, 0x01	; 1
 c04:	1a 94       	dec	r1
 c06:	e1 f6       	brne	.-72     	; 0xbc0 <__udivmod64+0x4c>
 c08:	2e f4       	brtc	.+10     	; 0xc14 <__udivmod64+0xa0>
 c0a:	94 01       	movw	r18, r8
 c0c:	af 01       	movw	r20, r30
 c0e:	be 01       	movw	r22, r28
 c10:	cd 01       	movw	r24, r26
 c12:	00 0c       	add	r0, r0
 c14:	08 95       	ret

00000c16 <__negdi2>:
 c16:	60 95       	com	r22
 c18:	70 95       	com	r23
 c1a:	80 95       	com	r24
 c1c:	90 95       	com	r25
 c1e:	30 95       	com	r19
 c20:	40 95       	com	r20
 c22:	50 95       	com	r21
 c24:	21 95       	neg	r18
 c26:	3f 4f       	sbci	r19, 0xFF	; 255
 c28:	4f 4f       	sbci	r20, 0xFF	; 255
 c2a:	5f 4f       	sbci	r21, 0xFF	; 255
 c2c:	6f 4f       	sbci	r22, 0xFF	; 255
 c2e:	7f 4f       	sbci	r23, 0xFF	; 255
 c30:	8f 4f       	sbci	r24, 0xFF	; 255
 c32:	9f 4f       	sbci	r25, 0xFF	; 255
 c34:	08 95       	ret

00000c36 <__prologue_saves__>:
 c36:	2f 92       	push	r2
 c38:	3f 92       	push	r3
 c3a:	4f 92       	push	r4
 c3c:	5f 92       	push	r5
 c3e:	6f 92       	push	r6
 c40:	7f 92       	push	r7
 c42:	8f 92       	push	r8
 c44:	9f 92       	push	r9
 c46:	af 92       	push	r10
 c48:	bf 92       	push	r11
 c4a:	cf 92       	push	r12
 c4c:	df 92       	push	r13
 c4e:	ef 92       	push	r14
 c50:	ff 92       	push	r15
 c52:	0f 93       	push	r16
 c54:	1f 93       	push	r17
 c56:	cf 93       	push	r28
 c58:	df 93       	push	r29
 c5a:	cd b7       	in	r28, 0x3d	; 61
 c5c:	de b7       	in	r29, 0x3e	; 62
 c5e:	ca 1b       	sub	r28, r26
 c60:	db 0b       	sbc	r29, r27
 c62:	0f b6       	in	r0, 0x3f	; 63
 c64:	f8 94       	cli
 c66:	de bf       	out	0x3e, r29	; 62
 c68:	0f be       	out	0x3f, r0	; 63
 c6a:	cd bf       	out	0x3d, r28	; 61
 c6c:	09 94       	ijmp

00000c6e <__epilogue_restores__>:
 c6e:	2a 88       	ldd	r2, Y+18	; 0x12
 c70:	39 88       	ldd	r3, Y+17	; 0x11
 c72:	48 88       	ldd	r4, Y+16	; 0x10
 c74:	5f 84       	ldd	r5, Y+15	; 0x0f
 c76:	6e 84       	ldd	r6, Y+14	; 0x0e
 c78:	7d 84       	ldd	r7, Y+13	; 0x0d
 c7a:	8c 84       	ldd	r8, Y+12	; 0x0c
 c7c:	9b 84       	ldd	r9, Y+11	; 0x0b
 c7e:	aa 84       	ldd	r10, Y+10	; 0x0a
 c80:	b9 84       	ldd	r11, Y+9	; 0x09
 c82:	c8 84       	ldd	r12, Y+8	; 0x08
 c84:	df 80       	ldd	r13, Y+7	; 0x07
 c86:	ee 80       	ldd	r14, Y+6	; 0x06
 c88:	fd 80       	ldd	r15, Y+5	; 0x05
 c8a:	0c 81       	ldd	r16, Y+4	; 0x04
 c8c:	1b 81       	ldd	r17, Y+3	; 0x03
 c8e:	aa 81       	ldd	r26, Y+2	; 0x02
 c90:	b9 81       	ldd	r27, Y+1	; 0x01
 c92:	ce 0f       	add	r28, r30
 c94:	d1 1d       	adc	r29, r1
 c96:	0f b6       	in	r0, 0x3f	; 63
 c98:	f8 94       	cli
 c9a:	de bf       	out	0x3e, r29	; 62
 c9c:	0f be       	out	0x3f, r0	; 63
 c9e:	cd bf       	out	0x3d, r28	; 61
 ca0:	ed 01       	movw	r28, r26
 ca2:	08 95       	ret

00000ca4 <__adddi3>:
 ca4:	2a 0d       	add	r18, r10
 ca6:	3b 1d       	adc	r19, r11
 ca8:	4c 1d       	adc	r20, r12
 caa:	5d 1d       	adc	r21, r13
 cac:	6e 1d       	adc	r22, r14
 cae:	7f 1d       	adc	r23, r15
 cb0:	80 1f       	adc	r24, r16
 cb2:	91 1f       	adc	r25, r17
 cb4:	08 95       	ret

00000cb6 <_exit>:
 cb6:	f8 94       	cli

00000cb8 <__stop_program>:
 cb8:	ff cf       	rjmp	.-2      	; 0xcb8 <__stop_program>
